TN:
SF:/home/alanjo/ubpf/vm/ubpf_jit.c
FN:35,ubpf_translate
FNDA:105,ubpf_translate
FN:41,ubpf_translate_null
FNDA:0,ubpf_translate_null
FN:52,ubpf_compile
FNDA:105,ubpf_compile
DA:35,105
DA:37,105
DA:41,0
DA:44,0
DA:45,0
DA:46,0
DA:47,0
DA:48,0
DA:52,105
DA:54,105
DA:55,105
DA:56,105
DA:58,105
DA:62,105
DA:64,105
DA:65,0
DA:66,0
DA:69,105
DA:70,105
DA:72,105
DA:73,0
DA:76,105
DA:77,105
DA:78,0
DA:79,0
DA:82,105
DA:84,105
DA:85,0
DA:86,0
DA:89,105
DA:90,105
DA:92,105
DA:93,105
DA:94,105
DA:95,0
DA:97,105
end_of_record
SF:/usr/include/x86_64-linux-gnu/bits/string_fortified.h
DA:31,105
DA:34,105
end_of_record
TN:
SF:/usr/include/x86_64-linux-gnu/bits/string_fortified.h
DA:31,9012
DA:34,9012
end_of_record
SF:/home/alanjo/ubpf/vm/ubpf_jit_x86_64.h
FN:79,emit_bytes
FNDA:8720,emit_bytes
FN:115,emit_jump_offset
FNDA:187,emit_jump_offset
FN:140,emit_modrm_and_displacement
FNDA:124,emit_modrm_and_displacement
FN:168,emit_basic_rex
FNDA:359,emit_basic_rex
FN:176,emit_push
FNDA:562,emit_push
FN:183,emit_pop
FNDA:562,emit_pop
FN:193,emit_alu32
FNDA:247,emit_alu32
FN:220,emit_alu64
FNDA:986,emit_alu64
FN:251,emit_cmp_imm32
FNDA:34,emit_cmp_imm32
FN:263,emit_jcc
FNDA:64,emit_jcc
FN:272,emit_load
FNDA:84,emit_load
FN:290,emit_load_imm
FNDA:497,emit_load_imm
FN:304,emit_store
FNDA:27,emit_store
FN:319,emit_store_imm32
FNDA:13,emit_store_imm32
FN:337,emit_call
FNDA:114,emit_call
FN:361,emit_jmp
FNDA:123,emit_jmp
FN:369,emit_string_load
FNDA:105,emit_string_load
DA:79,8720
DA:81,8720
DA:82,8720
DA:83,0
DA:84,0
DA:86,8720
DA:87,8720
DA:91,7402
DA:93,315
DA:97,2
DA:99,2
DA:103,985
DA:105,985
DA:109,226
DA:111,226
DA:115,187
DA:117,187
DA:120,187
DA:121,187
DA:122,187
DA:123,187
DA:127,1462
DA:129,1462
DA:130,2924
DA:131,22
DA:134,1233
DA:136,2466
DA:140,124
DA:142,124
DA:143,22
DA:144,102
DA:145,100
DA:146,100
DA:148,2
DA:149,2
DA:151,124
DA:154,2070
DA:156,2070
DA:157,2070
DA:158,2070
DA:159,2070
DA:160,15
DA:161,753
DA:168,2800
DA:170,359
DA:171,715
DA:173,359
DA:176,562
DA:178,562
DA:179,562
DA:180,562
DA:183,562
DA:185,562
DA:186,562
DA:187,562
DA:193,247
DA:195,247
DA:196,247
DA:197,247
DA:198,247
DA:202,146
DA:204,146
DA:205,146
DA:206,146
DA:210,29
DA:212,29
DA:213,29
DA:214,6
DA:220,986
DA:222,986
DA:223,986
DA:224,986
DA:225,986
DA:229,539
DA:231,234
DA:232,539
DA:233,293
DA:237,38
DA:239,38
DA:240,38
DA:241,38
DA:245,315
DA:247,315
DA:248,57
DA:251,34
DA:253,34
DA:254,34
DA:257,26
DA:259,26
DA:263,64
DA:265,64
DA:266,64
DA:267,64
DA:268,64
DA:272,84
DA:274,84
DA:276,84
DA:278,56
DA:279,112
DA:280,28
DA:282,28
DA:285,84
DA:286,84
DA:290,497
DA:292,497
DA:293,271
DA:296,226
DA:297,226
DA:298,226
DA:300,497
DA:304,27
DA:306,27
DA:307,1
DA:309,27
DA:310,27
DA:311,23
DA:313,27
DA:314,27
DA:315,27
DA:319,13
DA:321,13
DA:322,2
DA:324,13
DA:325,13
DA:326,13
DA:327,13
DA:328,6
DA:329,7
DA:330,2
DA:331,5
DA:332,5
DA:334,13
DA:337,114
DA:349,114
DA:351,114
DA:352,114
DA:358,114
DA:361,123
DA:363,123
DA:364,123
DA:365,123
DA:369,105
DA:371,105
DA:375,105
DA:376,105
DA:377,105
DA:378,105
DA:379,105
DA:380,105
DA:381,105
end_of_record
SF:/home/alanjo/ubpf/vm/ubpf_jit_x86_64.c
FN:107,ubpf_set_register_offset
FNDA:0,ubpf_set_register_offset
FN:129,translate
FNDA:105,translate
FN:518,muldivmod
FNDA:34,muldivmod
FN:642,resolve_jumps
FNDA:105,resolve_jumps
FN:677,resolve_strings
FNDA:105,resolve_strings
FN:691,ubpf_translate_x86_64
FNDA:105,ubpf_translate_x86_64
DA:99,1229
DA:101,1229
DA:102,1229
DA:107,0
DA:109,0
DA:110,0
DA:111,0
DA:112,0
DA:113,0
DA:114,0
DA:118,0
DA:119,0
DA:120,0
DA:121,0
DA:122,0
DA:123,0
DA:126,0
DA:129,105
DA:131,105
DA:134,630
DA:136,525
DA:140,105
DA:141,0
DA:145,105
DA:148,105
DA:150,912
DA:151,807
DA:152,807
DA:154,807
DA:155,807
DA:156,807
DA:158,807
DA:159,2
DA:160,2
DA:162,2
DA:163,2
DA:164,2
DA:165,1
DA:166,1
DA:168,1
DA:169,1
DA:170,1
DA:171,17
DA:177,17
DA:178,17
DA:179,1
DA:180,1
DA:182,1
DA:183,1
DA:184,1
DA:185,1
DA:186,1
DA:188,1
DA:189,1
DA:190,1
DA:191,3
DA:192,3
DA:195,1
DA:196,1
DA:197,1
DA:198,2
DA:199,2
DA:202,1
DA:203,1
DA:204,1
DA:205,1
DA:206,1
DA:207,1
DA:208,1
DA:209,1
DA:211,1
DA:212,1
DA:213,1
DA:214,117
DA:215,117
DA:218,1
DA:220,1
DA:221,1
DA:224,2
DA:225,2
DA:226,2
DA:231,38
DA:232,38
DA:234,23
DA:235,23
DA:237,23
DA:238,15
DA:240,15
DA:241,15
DA:242,15
DA:246,8
DA:247,8
DA:249,4
DA:250,4
DA:251,4
DA:252,4
DA:253,4
DA:255,3
DA:256,3
DA:257,3
DA:258,17
DA:264,17
DA:265,17
DA:266,4
DA:267,4
DA:269,41
DA:270,41
DA:271,41
DA:272,4
DA:273,4
DA:275,1
DA:276,1
DA:277,1
DA:278,32
DA:279,32
DA:282,2
DA:283,2
DA:284,2
DA:285,5
DA:286,5
DA:289,2
DA:290,2
DA:291,2
DA:292,1
DA:293,1
DA:294,1
DA:295,2
DA:296,2
DA:298,2
DA:299,2
DA:300,2
DA:301,123
DA:302,123
DA:303,123
DA:305,27
DA:307,1
DA:308,808
DA:311,1
DA:312,1
DA:313,1
DA:316,4
DA:317,4
DA:318,4
DA:319,4
DA:320,4
DA:321,4
DA:322,4
DA:324,3
DA:325,3
DA:326,3
DA:327,4
DA:328,4
DA:329,4
DA:330,4
DA:332,3
DA:333,3
DA:334,3
DA:335,2
DA:336,2
DA:337,2
DA:338,2
DA:340,1
DA:341,1
DA:342,1
DA:343,3
DA:344,3
DA:345,3
DA:346,3
DA:348,3
DA:349,3
DA:350,3
DA:351,3
DA:352,3
DA:353,3
DA:354,3
DA:356,3
DA:357,3
DA:358,3
DA:359,2
DA:360,2
DA:361,2
DA:362,2
DA:363,2
DA:364,2
DA:365,2
DA:366,2
DA:367,5
DA:368,5
DA:369,5
DA:370,5
DA:372,2
DA:373,2
DA:374,2
DA:375,2
DA:376,2
DA:377,2
DA:378,2
DA:380,2
DA:381,2
DA:382,2
DA:383,3
DA:384,3
DA:385,3
DA:386,3
DA:388,3
DA:389,3
DA:390,3
DA:391,3
DA:392,3
DA:393,3
DA:394,3
DA:396,3
DA:397,3
DA:398,3
DA:399,3
DA:400,3
DA:401,3
DA:402,3
DA:404,3
DA:405,3
DA:406,3
DA:409,9
DA:410,9
DA:411,9
DA:412,2
DA:413,2
DA:416,118
DA:417,118
DA:418,14
DA:422,16
DA:423,16
DA:424,16
DA:425,29
DA:426,29
DA:427,29
DA:428,27
DA:429,27
DA:430,27
DA:431,12
DA:432,12
DA:433,12
DA:435,1
DA:436,1
DA:437,1
DA:438,2
DA:439,2
DA:440,2
DA:441,5
DA:442,5
DA:443,5
DA:444,5
DA:445,5
DA:446,5
DA:448,3
DA:449,3
DA:450,3
DA:451,1
DA:452,1
DA:453,1
DA:454,22
DA:455,22
DA:456,22
DA:457,1
DA:458,1
DA:459,1
DA:461,7
DA:462,7
DA:463,7
DA:464,7
DA:465,7
DA:468,0
DA:469,0
DA:470,0
DA:475,105
DA:478,105
DA:479,0
DA:483,105
DA:486,630
DA:488,525
DA:491,105
DA:496,105
DA:499,105
DA:500,105
DA:501,105
DA:502,105
DA:504,105
DA:505,105
DA:509,105
DA:510,210
DA:511,105
DA:518,34
DA:520,34
DA:521,34
DA:522,34
DA:523,34
DA:524,34
DA:527,34
DA:528,4
DA:530,2
DA:533,2
DA:535,4
DA:538,30
DA:539,2
DA:542,30
DA:543,28
DA:547,30
DA:548,12
DA:550,18
DA:554,30
DA:563,30
DA:565,19
DA:566,9
DA:568,10
DA:572,19
DA:573,7
DA:577,19
DA:580,19
DA:581,19
DA:582,19
DA:583,19
DA:584,19
DA:587,19
DA:590,30
DA:591,15
DA:595,49
DA:598,30
DA:600,19
DA:604,19
DA:606,12
DA:610,12
DA:611,12
DA:612,12
DA:613,12
DA:616,7
DA:620,7
DA:621,7
DA:622,7
DA:623,7
DA:627,30
DA:628,28
DA:629,7
DA:631,28
DA:633,30
DA:634,2
DA:635,2
DA:637,2
DA:642,105
DA:644,105
DA:645,292
DA:646,187
DA:648,187
DA:649,187
DA:650,121
DA:651,66
DA:652,0
DA:654,66
DA:658,187
DA:660,187
DA:661,187
DA:663,105
DA:666,105
DA:668,105
DA:669,105
DA:670,105
DA:671,0
DA:673,105
DA:677,105
DA:679,105
DA:680,210
DA:681,105
DA:682,105
DA:684,105
DA:685,105
DA:687,105
DA:691,105
DA:693,105
DA:694,105
DA:696,105
DA:697,105
DA:698,105
DA:699,105
DA:700,105
DA:701,105
DA:702,105
DA:703,105
DA:705,105
DA:706,0
DA:709,105
DA:710,0
DA:711,0
DA:714,105
DA:715,0
DA:716,0
DA:719,105
DA:720,0
DA:721,0
DA:724,105
DA:725,105
DA:726,105
DA:728,105
DA:730,105
DA:731,105
DA:732,105
DA:733,105
DA:734,105
end_of_record
TN:
SF:/usr/include/x86_64-linux-gnu/bits/byteswap.h
DA:34,23
DA:37,23
DA:49,12
DA:52,12
DA:70,3
DA:73,3
end_of_record
SF:/usr/include/x86_64-linux-gnu/bits/stdio2.h
DA:98,0
DA:100,0
DA:210,0
DA:213,0
end_of_record
SF:/home/alanjo/ubpf/vm/ubpf_vm.c
FN:38,ubpf_toggle_bounds_check
FNDA:0,ubpf_toggle_bounds_check
FN:45,ubpf_set_error_print
FNDA:0,ubpf_set_error_print
FN:54,ubpf_create
FNDA:210,ubpf_create
FN:88,ubpf_destroy
FNDA:210,ubpf_destroy
FN:97,ubpf_register
FNDA:1260,ubpf_register
FN:109,ubpf_set_unwind_function_index
FNDA:210,ubpf_set_unwind_function_index
FN:120,ubpf_lookup_registered_function
FNDA:0,ubpf_lookup_registered_function
FN:133,ubpf_load
FNDA:210,ubpf_load
FN:164,ubpf_unload_code
FNDA:210,ubpf_unload_code
FN:185,ubpf_exec
FNDA:105,ubpf_exec
FN:787,bounds_check
FNDA:123,bounds_check
FN:804,ubpf_error
FNDA:0,ubpf_error
FN:830,ubpf_set_registers
FNDA:0,ubpf_set_registers
FN:838,ubpf_get_registers
FNDA:0,ubpf_get_registers
DA:38,0
DA:40,0
DA:41,0
DA:42,0
DA:45,0
DA:47,0
DA:48,0
DA:50,0
DA:51,0
DA:54,210
DA:56,210
DA:57,210
DA:61,210
DA:62,210
DA:63,0
DA:64,0
DA:67,210
DA:68,210
DA:69,0
DA:70,0
DA:73,210
DA:74,210
DA:77,210
DA:83,210
DA:84,210
DA:88,210
DA:90,210
DA:91,210
DA:92,210
DA:93,210
DA:94,210
DA:97,1260
DA:99,1260
DA:103,1260
DA:104,1260
DA:106,1260
DA:109,210
DA:111,210
DA:115,210
DA:116,210
DA:120,0
DA:122,0
DA:123,0
DA:124,0
DA:125,0
DA:126,0
DA:133,210
DA:135,210
DA:137,210
DA:138,0
DA:139,0
DA:142,210
DA:143,0
DA:144,0
DA:147,210
DA:151,210
DA:152,210
DA:153,0
DA:154,0
DA:157,210
DA:158,210
DA:160,210
DA:164,210
DA:166,210
DA:167,105
DA:168,105
DA:169,105
DA:171,210
DA:172,210
DA:173,210
DA:174,210
DA:176,210
DA:179,23
DA:181,23
DA:185,105
DA:187,105
DA:188,105
DA:189,105
DA:190,105
DA:191,105
DA:193,105
DA:204,105
DA:207,105
DA:208,105
DA:209,105
DA:211,1441
DA:212,1441
DA:213,1441
DA:215,1441
DA:216,2
DA:217,2
DA:218,2
DA:219,2
DA:220,2
DA:221,2
DA:222,2
DA:223,2
DA:224,1
DA:225,1
DA:226,1
DA:227,1
DA:228,1
DA:229,1
DA:230,1
DA:231,1
DA:232,2
DA:233,2
DA:234,2
DA:235,2
DA:236,3
DA:237,3
DA:238,3
DA:239,3
DA:240,3
DA:241,3
DA:242,3
DA:243,3
DA:244,4
DA:245,4
DA:246,4
DA:247,4
DA:248,1
DA:249,1
DA:250,1
DA:251,1
DA:252,1
DA:253,1
DA:254,1
DA:255,1
DA:256,1
DA:257,1
DA:258,1
DA:259,1
DA:260,1
DA:261,1
DA:262,1
DA:263,1
DA:264,3
DA:265,3
DA:266,3
DA:267,3
DA:268,1
DA:269,1
DA:270,1
DA:271,1
DA:272,2
DA:273,2
DA:274,2
DA:275,2
DA:276,1
DA:277,1
DA:278,1
DA:279,1
DA:280,1
DA:281,1
DA:282,1
DA:283,1
DA:284,3
DA:285,3
DA:286,3
DA:287,3
DA:288,2
DA:289,2
DA:290,2
DA:291,1
DA:292,1
DA:293,1
DA:294,1
DA:295,1
DA:296,1
DA:297,1
DA:298,1
DA:299,105
DA:300,105
DA:301,105
DA:302,105
DA:303,1
DA:304,1
DA:305,1
DA:306,1
DA:307,1
DA:308,1
DA:309,1
DA:310,1
DA:311,2
DA:312,2
DA:313,2
DA:314,2
DA:316,3
DA:317,3
DA:318,1
DA:319,2
DA:320,1
DA:322,1336
DA:325,38
DA:326,38
DA:327,23
DA:328,15
DA:329,12
DA:330,3
DA:331,3
DA:336,81
DA:337,81
DA:338,81
DA:339,4
DA:340,4
DA:341,4
DA:342,4
DA:343,4
DA:344,4
DA:345,67
DA:346,67
DA:347,67
DA:348,12
DA:349,12
DA:350,12
DA:351,67
DA:352,67
DA:353,67
DA:354,3
DA:355,3
DA:356,3
DA:357,68
DA:358,68
DA:359,68
DA:360,4
DA:361,4
DA:362,4
DA:363,41
DA:364,41
DA:365,41
DA:366,4
DA:367,4
DA:368,4
DA:369,1
DA:370,1
DA:371,1
DA:372,32
DA:373,32
DA:374,32
DA:375,2
DA:376,2
DA:377,2
DA:378,5
DA:379,5
DA:380,5
DA:381,2
DA:382,2
DA:383,2
DA:384,1
DA:385,1
DA:386,1
DA:387,2
DA:388,2
DA:389,2
DA:390,2
DA:391,2
DA:392,2
DA:393,2
DA:394,2
DA:395,2
DA:396,2
DA:397,2
DA:398,2
DA:399,246
DA:400,246
DA:401,246
DA:402,155
DA:403,155
DA:404,155
DA:405,1
DA:406,1
DA:407,1
DA:408,1
DA:409,1
DA:410,1
DA:430,16
DA:431,16
DA:432,16
DA:433,16
DA:434,28
DA:435,28
DA:436,28
DA:437,28
DA:438,27
DA:439,27
DA:440,27
DA:441,27
DA:442,12
DA:443,12
DA:444,12
DA:445,12
DA:447,1
DA:448,1
DA:449,1
DA:450,1
DA:451,2
DA:452,2
DA:453,2
DA:454,2
DA:455,5
DA:456,5
DA:457,5
DA:458,5
DA:459,5
DA:460,5
DA:461,5
DA:462,5
DA:464,3
DA:465,3
DA:466,3
DA:467,3
DA:468,1
DA:469,1
DA:470,1
DA:471,1
DA:472,22
DA:473,22
DA:474,22
DA:475,22
DA:476,1
DA:477,1
DA:478,1
DA:479,1
DA:481,7
DA:482,7
DA:483,7
DA:485,3
DA:486,3
DA:487,3
DA:488,4
DA:489,4
DA:490,2
DA:493,3
DA:494,3
DA:495,1
DA:498,4
DA:499,4
DA:500,2
DA:503,3
DA:504,3
DA:505,1
DA:508,2
DA:509,2
DA:510,1
DA:513,65
DA:514,65
DA:515,1
DA:518,3
DA:519,3
DA:520,1
DA:523,3
DA:524,3
DA:525,1
DA:528,3
DA:529,3
DA:530,2
DA:533,3
DA:534,3
DA:535,2
DA:538,2
DA:539,2
DA:540,1
DA:543,2
DA:544,2
DA:545,1
DA:548,78
DA:549,78
DA:550,75
DA:553,2
DA:554,2
DA:555,1
DA:558,2
DA:559,2
DA:560,1
DA:563,2
DA:564,2
DA:565,1
DA:568,3
DA:569,3
DA:570,1
DA:573,3
DA:574,3
DA:575,1
DA:578,3
DA:579,3
DA:580,1
DA:583,3
DA:584,3
DA:585,1
DA:588,3
DA:589,3
DA:590,2
DA:593,3
DA:594,3
DA:595,2
DA:598,104
DA:599,104
DA:600,104
DA:601,9
DA:602,9
DA:604,9
DA:605,1
DA:606,1
DA:787,123
DA:789,123
DA:791,123
DA:794,19
DA:798,0
DA:799,0
DA:804,0
DA:806,0
DA:807,0
DA:808,0
DA:809,0
DA:810,0
DA:812,0
DA:813,0
DA:830,0
DA:832,0
DA:833,0
DA:834,0
DA:835,0
DA:838,0
DA:840,0
DA:841,0
DA:842,0
end_of_record
SF:/usr/include/x86_64-linux-gnu/bits/uintn-identity.h
DA:33,1
DA:35,1
DA:39,1
DA:41,1
end_of_record
SF:/usr/include/x86_64-linux-gnu/bits/string_fortified.h
DA:31,210
DA:34,210
end_of_record
TN:
SF:/usr/include/c++/9/utility
DA:174,1260
DA:175,1260
DA:198,1260
DA:199,1260
DA:219,1260
DA:220,1260
end_of_record
SF:/usr/include/c++/9/istream
DA:131,740
DA:133,740
DA:182,740
DA:183,740
end_of_record
SF:/usr/include/c++/9/new
DA:173,190936
DA:174,190936
end_of_record
SF:/usr/include/c++/9/string_view
DA:123,65260
DA:124,65260
DA:173,65260
DA:225,65260
end_of_record
SF:/home/alanjo/ubpf/build/_deps/googletest-src/googletest/include/gtest/internal/gtest-port.h
FN:1116,_ZN7testing8internal27CheckedDowncastToActualTypeIKNS0_30ValuesInIteratorRangeGeneratorIbE8IteratorEKNS0_22ParamIteratorInterfaceIbEEEEPT_PT0_
FNDA:0,_ZN7testing8internal27CheckedDowncastToActualTypeIKNS0_30ValuesInIteratorRangeGeneratorIbE8IteratorEKNS0_22ParamIteratorInterfaceIbEEEEPT_PT0_
FN:1116,_ZN7testing8internal27CheckedDowncastToActualTypeIKNS0_30ValuesInIteratorRangeGeneratorINSt10filesystem7__cxx114pathEE8IteratorEKNS0_22ParamIteratorInterfaceIS5_EEEEPT_PT0_
FNDA:63252,_ZN7testing8internal27CheckedDowncastToActualTypeIKNS0_30ValuesInIteratorRangeGeneratorINSt10filesystem7__cxx114pathEE8IteratorEKNS0_22ParamIteratorInterfaceIS5_EEEEPT_PT0_
FN:1116,_ZN7testing8internal27CheckedDowncastToActualTypeINS0_26ParameterizedTestSuiteInfoI9ubpf_testEENS0_30ParameterizedTestSuiteInfoBaseEEEPT_PT0_
FNDA:502,_ZN7testing8internal27CheckedDowncastToActualTypeINS0_26ParameterizedTestSuiteInfoI9ubpf_testEENS0_30ParameterizedTestSuiteInfoBaseEEEPT_PT0_
DA:967,0
DA:1116,0
DA:1118,0
DA:1124,0
DA:1116,63252
DA:1118,63252
DA:1124,63252
DA:1116,502
DA:1118,502
DA:1124,502
DA:1902,133030
DA:1903,133030
DA:2102,0
end_of_record
SF:/usr/include/c++/9/ext/new_allocator.h
DA:80,198243
DA:83,831552
DA:89,1083700
DA:102,62750
DA:104,62750
DA:105,0
DA:114,0
DA:119,610355
DA:128,610355
DA:132,535764
DA:144,128186
DA:146,128437
DA:150,1506
DA:152,63754
end_of_record
SF:/home/alanjo/ubpf/build/_deps/googletest-src/googletest/include/gtest/gtest.h
FN:339,_ZN7testing4Test5SetupEv
FNDA:0,_ZN7testing4Test5SetupEv
FN:1660,_ZN7testing18WithParamInterfaceINSt10filesystem7__cxx114pathEE8GetParamEv
FNDA:250,_ZN7testing18WithParamInterfaceINSt10filesystem7__cxx114pathEE8GetParamEv
DA:339,0
DA:1653,250
DA:1660,250
DA:1661,250
DA:1663,0
DA:1664,250
DA:1670,250
DA:1687,250
end_of_record
SF:/usr/include/c++/9/bits/stl_map.h
FN:226,_ZNSt3mapIjPFmmmmmmESt4lessIjESaISt4pairIKjS1_EEEC2ESt16initializer_listIS6_ERKS3_RKS7_
FNDA:251,_ZNSt3mapIjPFmmmmmmESt4lessIjESaISt4pairIKjS1_EEEC2ESt16initializer_listIS6_ERKS3_RKS7_
FN:300,_ZNSt3mapIjPFmmmmmmESt4lessIjESaISt4pairIKjS1_EEED2Ev
FNDA:251,_ZNSt3mapIjPFmmmmmmESt4lessIjESaISt4pairIKjS1_EEED2Ev
DA:226,251
DA:229,251
DA:230,502
DA:300,251
DA:354,210
DA:355,210
DA:372,210
DA:373,210
end_of_record
SF:/usr/include/c++/9/bits/vector.tcc
FN:109,_ZNSt6vectorIN7testing8internal26ParameterizedTestSuiteInfoI9ubpf_testE17InstantiationInfoESaIS5_EE12emplace_backIJS5_EEERS5_DpOT_
FNDA:251,_ZNSt6vectorIN7testing8internal26ParameterizedTestSuiteInfoI9ubpf_testE17InstantiationInfoESaIS5_EE12emplace_backIJS5_EEERS5_DpOT_
FN:109,_ZNSt6vectorISt10shared_ptrIN7testing8internal26ParameterizedTestSuiteInfoI9ubpf_testE8TestInfoEESaIS7_EE12emplace_backIJS7_EEERS7_DpOT_
FNDA:502,_ZNSt6vectorISt10shared_ptrIN7testing8internal26ParameterizedTestSuiteInfoI9ubpf_testE8TestInfoEESaIS7_EE12emplace_backIJS7_EEERS7_DpOT_
FN:109,_ZNSt6vectorIPN7testing8internal30ParameterizedTestSuiteInfoBaseESaIS3_EE12emplace_backIJS3_EEERS3_DpOT_
FNDA:251,_ZNSt6vectorIPN7testing8internal30ParameterizedTestSuiteInfoBaseESaIS3_EE12emplace_backIJS3_EEERS3_DpOT_
FN:109,_ZNSt6vectorIhSaIhEE12emplace_backIJhEEERhDpOT_
FNDA:678,_ZNSt6vectorIhSaIhEE12emplace_backIJhEEERhDpOT_
FN:426,_ZNSt6vectorIN7testing8internal26ParameterizedTestSuiteInfoI9ubpf_testE17InstantiationInfoESaIS5_EE17_M_realloc_insertIJS5_EEEvN9__gnu_cxx17__normal_iteratorIPS5_S7_EEDpOT_
FNDA:251,_ZNSt6vectorIN7testing8internal26ParameterizedTestSuiteInfoI9ubpf_testE17InstantiationInfoESaIS5_EE17_M_realloc_insertIJS5_EEEvN9__gnu_cxx17__normal_iteratorIPS5_S7_EEDpOT_
FN:426,_ZNSt6vectorISt10shared_ptrIN7testing8internal26ParameterizedTestSuiteInfoI9ubpf_testE8TestInfoEESaIS7_EE17_M_realloc_insertIJS7_EEEvN9__gnu_cxx17__normal_iteratorIPS7_S9_EEDpOT_
FNDA:502,_ZNSt6vectorISt10shared_ptrIN7testing8internal26ParameterizedTestSuiteInfoI9ubpf_testE8TestInfoEESaIS7_EE17_M_realloc_insertIJS7_EEEvN9__gnu_cxx17__normal_iteratorIPS7_S9_EEDpOT_
FN:426,_ZNSt6vectorIPN7testing8internal30ParameterizedTestSuiteInfoBaseESaIS3_EE17_M_realloc_insertIJS3_EEEvN9__gnu_cxx17__normal_iteratorIPS3_S5_EEDpOT_
FNDA:251,_ZNSt6vectorIPN7testing8internal30ParameterizedTestSuiteInfoBaseESaIS3_EE17_M_realloc_insertIJS3_EEEvN9__gnu_cxx17__normal_iteratorIPS3_S5_EEDpOT_
FN:426,_ZNSt6vectorIhSaIhEE17_M_realloc_insertIJhEEEvN9__gnu_cxx17__normal_iteratorIPhS1_EEDpOT_
FNDA:260,_ZNSt6vectorIhSaIhEE17_M_realloc_insertIJhEEEvN9__gnu_cxx17__normal_iteratorIPhS1_EEDpOT_
FN:426,_ZNSt6vectorINSt10filesystem7__cxx114pathESaIS2_EE17_M_realloc_insertIJRKS2_EEEvN9__gnu_cxx17__normal_iteratorIPS2_S4_EEDpOT_
FNDA:4016,_ZNSt6vectorINSt10filesystem7__cxx114pathESaIS2_EE17_M_realloc_insertIJRKS2_EEEvN9__gnu_cxx17__normal_iteratorIPS2_S4_EEDpOT_
DA:109,251
DA:112,251
DA:115,0
DA:117,0
DA:121,251
DA:123,251
DA:109,502
DA:112,502
DA:115,0
DA:117,0
DA:121,502
DA:123,502
DA:109,251
DA:112,251
DA:115,0
DA:117,0
DA:121,251
DA:123,251
DA:109,678
DA:112,678
DA:115,418
DA:117,418
DA:121,260
DA:123,678
DA:426,251
DA:435,251
DA:437,251
DA:438,251
DA:439,251
DA:440,251
DA:441,251
DA:449,502
DA:450,251
DA:456,251
DA:461,251
DA:462,251
DA:464,251
DA:466,251
DA:467,251
DA:500,502
DA:501,251
DA:502,251
DA:503,251
DA:504,251
DA:505,251
DA:426,502
DA:435,502
DA:437,502
DA:438,502
DA:439,502
DA:440,502
DA:441,502
DA:449,502
DA:450,502
DA:456,502
DA:461,502
DA:462,502
DA:464,502
DA:466,502
DA:467,502
DA:500,1004
DA:501,502
DA:502,502
DA:503,502
DA:504,502
DA:505,502
DA:426,251
DA:435,251
DA:437,251
DA:438,251
DA:439,251
DA:440,251
DA:441,251
DA:449,251
DA:450,251
DA:456,251
DA:461,251
DA:462,251
DA:464,251
DA:466,251
DA:467,251
DA:500,502
DA:501,251
DA:502,251
DA:503,251
DA:504,251
DA:505,251
DA:426,260
DA:435,260
DA:437,260
DA:438,260
DA:439,260
DA:440,260
DA:441,260
DA:449,260
DA:456,260
DA:461,260
DA:462,260
DA:464,260
DA:466,260
DA:467,260
DA:500,520
DA:501,260
DA:502,260
DA:503,260
DA:504,260
DA:505,260
DA:426,4016
DA:435,4016
DA:437,4016
DA:438,4016
DA:439,4016
DA:440,4016
DA:441,4016
DA:449,71786
DA:450,4016
DA:456,67770
DA:461,67770
DA:462,67770
DA:464,4016
DA:466,4016
DA:467,4016
DA:485,0
DA:487,0
DA:488,0
DA:491,0
DA:492,0
DA:493,0
DA:500,8032
DA:501,4016
DA:502,4016
DA:503,4016
DA:504,4016
DA:505,4016
end_of_record
SF:/usr/include/c++/9/bits/stl_pair.h
DA:311,0
DA:312,0
DA:325,1255
DA:326,1255
DA:341,125751
DA:342,188501
end_of_record
SF:/usr/include/c++/9/tuple
FN:216,_ZNSt11_Tuple_implILm0EJNSt7__cxx1112basic_stringIcSt11char_traitsIcESaIcEEES5_St6vectorI9ebpf_instSaIS7_EEEEC2IRS5_JSC_RS9_EvEEOT_DpOT0_
FNDA:224,_ZNSt11_Tuple_implILm0EJNSt7__cxx1112basic_stringIcSt11char_traitsIcESaIcEEES5_St6vectorI9ebpf_instSaIS7_EEEEC2IRS5_JSC_RS9_EvEEOT_DpOT0_
FN:216,_ZNSt11_Tuple_implILm1EJNSt7__cxx1112basic_stringIcSt11char_traitsIcESaIcEEESt6vectorI9ebpf_instSaIS7_EEEEC2IRS5_JRS9_EvEEOT_DpOT0_
FNDA:224,_ZNSt11_Tuple_implILm1EJNSt7__cxx1112basic_stringIcSt11char_traitsIcESaIcEEESt6vectorI9ebpf_instSaIS7_EEEEC2IRS5_JRS9_EvEEOT_DpOT0_
DA:76,127508
DA:86,63754
DA:87,63754
DA:113,949070
DA:120,0
DA:122,127508
DA:123,63754
DA:132,64426
DA:133,448
DA:160,1139550
DA:163,1070260
DA:195,63754
DA:198,1070260
DA:206,127508
DA:207,190760
DA:216,224
DA:218,448
DA:216,224
DA:218,448
DA:216,63754
DA:218,63754
DA:326,0
DA:334,224
DA:339,127508
DA:340,190760
DA:348,63978
DA:349,224
DA:523,224
DA:626,224
DA:627,224
DA:918,127508
DA:919,63754
DA:968,63754
DA:969,63754
DA:1309,2024870
DA:1310,2088120
DA:1314,1070260
DA:1315,1070260
DA:1320,2024870
DA:1321,1139330
DA:1326,1070260
DA:1327,692756
DA:1332,224
DA:1335,224
DA:1470,0
DA:1474,0
end_of_record
SF:/usr/include/c++/9/bits/char_traits.h
DA:231,75693
DA:299,812249
DA:300,140247
DA:315,1141050
DA:317,1141050
DA:320,1141050
DA:321,1141050
DA:332,1141050
DA:336,75693
DA:339,75693
DA:342,75693
DA:346,0
DA:348,0
DA:351,0
DA:353,0
DA:356,0
DA:360,0
DA:362,0
DA:364,0
DA:368,430728
DA:370,0
DA:372,430728
end_of_record
SF:/home/alanjo/ubpf/build/_deps/googletest-src/googletest/include/gtest/gtest-param-test.h
FN:297,_ZN7testing8ValuesInIN9__gnu_cxx17__normal_iteratorIPKNSt10filesystem7__cxx114pathESt6vectorIS5_SaIS5_EEEEEENS_8internal14ParamGeneratorINSt15iterator_traitsIT_E10value_typeEEESF_SF_
FNDA:502,_ZN7testing8ValuesInIN9__gnu_cxx17__normal_iteratorIPKNSt10filesystem7__cxx114pathESt6vectorIS5_SaIS5_EEEEEENS_8internal14ParamGeneratorINSt15iterator_traitsIT_E10value_typeEEESF_SF_
DA:297,502
DA:300,1004
DA:309,502
DA:311,502
end_of_record
SF:/usr/include/c++/9/bits/cpp_type_traits.h
DA:428,434
end_of_record
SF:/usr/include/c++/9/bits/stl_vector.h
FN:550,_ZNSt6vectorI9ebpf_instSaIS0_EEC2ERKS2_
FNDA:434,_ZNSt6vectorI9ebpf_instSaIS0_EEC2ERKS2_
FN:650,_ZNSt6vectorINSt10filesystem7__cxx114pathESaIS2_EEC2IN9__gnu_cxx17__normal_iteratorIPKS2_S4_EEvEET_SB_RKS3_
FNDA:502,_ZNSt6vectorINSt10filesystem7__cxx114pathESaIS2_EEC2IN9__gnu_cxx17__normal_iteratorIPKS2_S4_EEvEET_SB_RKS3_
FN:675,_ZNSt6vectorIN7testing8internal26ParameterizedTestSuiteInfoI9ubpf_testE17InstantiationInfoESaIS5_EED2Ev
FNDA:251,_ZNSt6vectorIN7testing8internal26ParameterizedTestSuiteInfoI9ubpf_testE17InstantiationInfoESaIS5_EED2Ev
FN:675,_ZNSt6vectorISt10shared_ptrIN7testing8internal26ParameterizedTestSuiteInfoI9ubpf_testE8TestInfoEESaIS7_EED2Ev
FNDA:251,_ZNSt6vectorISt10shared_ptrIN7testing8internal26ParameterizedTestSuiteInfoI9ubpf_testE8TestInfoEESaIS7_EED2Ev
FN:675,_ZNSt6vectorINSt10filesystem7__cxx114pathESaIS2_EED2Ev
FNDA:1004,_ZNSt6vectorINSt10filesystem7__cxx114pathESaIS2_EED2Ev
FN:1184,_ZNSt6vectorINSt10filesystem7__cxx114pathESaIS2_EE9push_backERKS2_
FNDA:62750,_ZNSt6vectorINSt10filesystem7__cxx114pathESaIS2_EE9push_backERKS2_
FN:1753,_ZNKSt6vectorIN7testing8internal26ParameterizedTestSuiteInfoI9ubpf_testE17InstantiationInfoESaIS5_EE12_M_check_lenEmPKc
FNDA:251,_ZNKSt6vectorIN7testing8internal26ParameterizedTestSuiteInfoI9ubpf_testE17InstantiationInfoESaIS5_EE12_M_check_lenEmPKc
FN:1753,_ZNKSt6vectorISt10shared_ptrIN7testing8internal26ParameterizedTestSuiteInfoI9ubpf_testE8TestInfoEESaIS7_EE12_M_check_lenEmPKc
FNDA:502,_ZNKSt6vectorISt10shared_ptrIN7testing8internal26ParameterizedTestSuiteInfoI9ubpf_testE8TestInfoEESaIS7_EE12_M_check_lenEmPKc
FN:1753,_ZNKSt6vectorIPN7testing8internal30ParameterizedTestSuiteInfoBaseESaIS3_EE12_M_check_lenEmPKc
FNDA:251,_ZNKSt6vectorIPN7testing8internal30ParameterizedTestSuiteInfoBaseESaIS3_EE12_M_check_lenEmPKc
FN:1753,_ZNKSt6vectorIhSaIhEE12_M_check_lenEmPKc
FNDA:260,_ZNKSt6vectorIhSaIhEE12_M_check_lenEmPKc
FN:1753,_ZNKSt6vectorINSt10filesystem7__cxx114pathESaIS2_EE12_M_check_lenEmPKc
FNDA:4016,_ZNKSt6vectorINSt10filesystem7__cxx114pathESaIS2_EE12_M_check_lenEmPKc
DA:94,1899
DA:95,1899
DA:125,2150
DA:128,963
DA:130,963
DA:133,936
DA:134,936
DA:273,5280
DA:274,69034
DA:277,10994
DA:278,10994
DA:285,963
DA:290,502
DA:291,502
DA:300,434
DA:301,434
DA:302,434
DA:330,2150
DA:332,4300
DA:333,2150
DA:334,2150
DA:347,7430
DA:350,5280
DA:351,10625
DA:356,434
DA:358,868
DA:359,434
DA:360,434
DA:450,2026
DA:453,83861
DA:462,5531
DA:466,69232
DA:484,963
DA:550,434
DA:552,434
DA:554,434
DA:555,868
DA:557,434
DA:558,434
DA:650,502
DA:652,502
DA:654,502
DA:656,502
DA:675,251
DA:677,502
DA:678,251
DA:680,251
DA:675,251
DA:677,502
DA:678,251
DA:680,251
DA:675,1004
DA:677,2008
DA:678,1004
DA:680,1004
DA:675,644
DA:677,644
DA:678,644
DA:680,1140
DA:808,6786
DA:809,6786
DA:817,1648
DA:818,1648
DA:826,9472
DA:827,7790
DA:835,64398
DA:836,64188
DA:915,16694
DA:916,434
DA:920,10560
DA:921,15840
DA:1004,210
DA:1005,210
DA:1140,1682
DA:1143,1682
DA:1165,210
DA:1166,210
DA:1169,210
DA:1170,210
DA:1184,62750
DA:1186,62750
DA:1189,58734
DA:1191,58734
DA:1195,4016
DA:1196,62750
DA:1200,1682
DA:1201,1682
DA:1753,251
DA:1755,251
DA:1756,0
DA:1758,251
DA:1759,251
DA:1753,502
DA:1755,502
DA:1756,0
DA:1758,502
DA:1759,502
DA:1753,251
DA:1755,251
DA:1756,0
DA:1758,251
DA:1759,251
DA:1753,260
DA:1755,260
DA:1756,0
DA:1758,260
DA:1759,260
DA:1753,4016
DA:1755,4016
DA:1756,0
DA:1758,4016
DA:1759,4016
DA:1773,10560
DA:1780,10560
DA:1781,10560
DA:1840,420
end_of_record
SF:/usr/include/c++/9/bits/stl_construct.h
DA:74,125500
DA:75,62750
DA:97,126253
DA:98,126253
DA:105,0
DA:107,127759
DA:108,126755
DA:117,644
DA:127,0
DA:137,0
DA:203,1506
DA:206,2150
end_of_record
SF:/home/alanjo/ubpf/build/_deps/googletest-src/googletest/include/gtest/internal/gtest-param-util.h
FN:299,_ZN7testing8internal30ValuesInIteratorRangeGeneratorIbED2Ev
FNDA:0,_ZN7testing8internal30ValuesInIteratorRangeGeneratorIbED2Ev
FN:299,_ZN7testing8internal30ValuesInIteratorRangeGeneratorINSt10filesystem7__cxx114pathEED0Ev
FNDA:502,_ZN7testing8internal30ValuesInIteratorRangeGeneratorINSt10filesystem7__cxx114pathEED0Ev
FN:299,_ZN7testing8internal30ValuesInIteratorRangeGeneratorINSt10filesystem7__cxx114pathEED2Ev
FNDA:0,_ZN7testing8internal30ValuesInIteratorRangeGeneratorINSt10filesystem7__cxx114pathEED2Ev
FN:299,_ZN7testing8internal30ValuesInIteratorRangeGeneratorIbED0Ev
FNDA:0,_ZN7testing8internal30ValuesInIteratorRangeGeneratorIbED0Ev
FN:301,_ZNK7testing8internal30ValuesInIteratorRangeGeneratorINSt10filesystem7__cxx114pathEE5BeginEv
FNDA:502,_ZNK7testing8internal30ValuesInIteratorRangeGeneratorINSt10filesystem7__cxx114pathEE5BeginEv
FN:301,_ZNK7testing8internal30ValuesInIteratorRangeGeneratorIbE5BeginEv
FNDA:0,_ZNK7testing8internal30ValuesInIteratorRangeGeneratorIbE5BeginEv
FN:304,_ZNK7testing8internal30ValuesInIteratorRangeGeneratorINSt10filesystem7__cxx114pathEE3EndEv
FNDA:63252,_ZNK7testing8internal30ValuesInIteratorRangeGeneratorINSt10filesystem7__cxx114pathEE3EndEv
FN:304,_ZNK7testing8internal30ValuesInIteratorRangeGeneratorIbE3EndEv
FNDA:0,_ZNK7testing8internal30ValuesInIteratorRangeGeneratorIbE3EndEv
FN:316,_ZN7testing8internal30ValuesInIteratorRangeGeneratorIbE8IteratorD2Ev
FNDA:0,_ZN7testing8internal30ValuesInIteratorRangeGeneratorIbE8IteratorD2Ev
FN:316,_ZN7testing8internal30ValuesInIteratorRangeGeneratorINSt10filesystem7__cxx114pathEE8IteratorD0Ev
FNDA:63754,_ZN7testing8internal30ValuesInIteratorRangeGeneratorINSt10filesystem7__cxx114pathEE8IteratorD0Ev
FN:316,_ZN7testing8internal30ValuesInIteratorRangeGeneratorINSt10filesystem7__cxx114pathEE8IteratorD2Ev
FNDA:0,_ZN7testing8internal30ValuesInIteratorRangeGeneratorINSt10filesystem7__cxx114pathEE8IteratorD2Ev
FN:316,_ZN7testing8internal30ValuesInIteratorRangeGeneratorIbE8IteratorD0Ev
FNDA:0,_ZN7testing8internal30ValuesInIteratorRangeGeneratorIbE8IteratorD0Ev
FN:318,_ZNK7testing8internal30ValuesInIteratorRangeGeneratorINSt10filesystem7__cxx114pathEE8Iterator13BaseGeneratorEv
FNDA:126504,_ZNK7testing8internal30ValuesInIteratorRangeGeneratorINSt10filesystem7__cxx114pathEE8Iterator13BaseGeneratorEv
FN:318,_ZNK7testing8internal30ValuesInIteratorRangeGeneratorIbE8Iterator13BaseGeneratorEv
FNDA:0,_ZNK7testing8internal30ValuesInIteratorRangeGeneratorIbE8Iterator13BaseGeneratorEv
FN:321,_ZN7testing8internal30ValuesInIteratorRangeGeneratorINSt10filesystem7__cxx114pathEE8Iterator7AdvanceEv
FNDA:62750,_ZN7testing8internal30ValuesInIteratorRangeGeneratorINSt10filesystem7__cxx114pathEE8Iterator7AdvanceEv
FN:321,_ZN7testing8internal30ValuesInIteratorRangeGeneratorIbE8Iterator7AdvanceEv
FNDA:0,_ZN7testing8internal30ValuesInIteratorRangeGeneratorIbE8Iterator7AdvanceEv
FN:325,_ZNK7testing8internal30ValuesInIteratorRangeGeneratorINSt10filesystem7__cxx114pathEE8Iterator5CloneEv
FNDA:0,_ZNK7testing8internal30ValuesInIteratorRangeGeneratorINSt10filesystem7__cxx114pathEE8Iterator5CloneEv
FN:325,_ZNK7testing8internal30ValuesInIteratorRangeGeneratorIbE8Iterator5CloneEv
FNDA:0,_ZNK7testing8internal30ValuesInIteratorRangeGeneratorIbE8Iterator5CloneEv
FN:335,_ZNK7testing8internal30ValuesInIteratorRangeGeneratorIbE8Iterator7CurrentEv
FNDA:0,_ZNK7testing8internal30ValuesInIteratorRangeGeneratorIbE8Iterator7CurrentEv
FN:335,_ZNK7testing8internal30ValuesInIteratorRangeGeneratorINSt10filesystem7__cxx114pathEE8Iterator7CurrentEv
FNDA:188250,_ZNK7testing8internal30ValuesInIteratorRangeGeneratorINSt10filesystem7__cxx114pathEE8Iterator7CurrentEv
FN:339,_ZNK7testing8internal30ValuesInIteratorRangeGeneratorIbE8Iterator6EqualsERKNS0_22ParamIteratorInterfaceIbEE
FNDA:0,_ZNK7testing8internal30ValuesInIteratorRangeGeneratorIbE8Iterator6EqualsERKNS0_22ParamIteratorInterfaceIbEE
FN:339,_ZNK7testing8internal30ValuesInIteratorRangeGeneratorINSt10filesystem7__cxx114pathEE8Iterator6EqualsERKNS0_22ParamIteratorInterfaceIS4_EE
FNDA:63252,_ZNK7testing8internal30ValuesInIteratorRangeGeneratorINSt10filesystem7__cxx114pathEE8Iterator6EqualsERKNS0_22ParamIteratorInterfaceIS4_EE
FN:378,_ZN7testing8internal16DefaultParamNameINSt10filesystem7__cxx114pathEEENSt7__cxx1112basic_stringIcSt11char_traitsIcESaIcEEERKNS_13TestParamInfoIT_EE
FNDA:62750,_ZN7testing8internal16DefaultParamNameINSt10filesystem7__cxx114pathEEENSt7__cxx1112basic_stringIcSt11char_traitsIcESaIcEEERKNS_13TestParamInfoIT_EE
FN:401,_ZN7testing8internal24ParameterizedTestFactoryI18ubpf_test_jit_TestE10CreateTestEv
FNDA:125,_ZN7testing8internal24ParameterizedTestFactoryI18ubpf_test_jit_TestE10CreateTestEv
FN:401,_ZN7testing8internal24ParameterizedTestFactoryI24ubpf_test_interpret_TestE10CreateTestEv
FNDA:125,_ZN7testing8internal24ParameterizedTestFactoryI24ubpf_test_interpret_TestE10CreateTestEv
FN:441,_ZN7testing8internal15TestMetaFactoryI18ubpf_test_jit_TestE17CreateTestFactoryENSt10filesystem7__cxx114pathE
FNDA:31375,_ZN7testing8internal15TestMetaFactoryI18ubpf_test_jit_TestE17CreateTestFactoryENSt10filesystem7__cxx114pathE
FN:441,_ZN7testing8internal15TestMetaFactoryI24ubpf_test_interpret_TestE17CreateTestFactoryENSt10filesystem7__cxx114pathE
FNDA:31375,_ZN7testing8internal15TestMetaFactoryI24ubpf_test_interpret_TestE17CreateTestFactoryENSt10filesystem7__cxx114pathE
FN:513,_ZN7testing8internal26ParameterizedTestSuiteInfoI9ubpf_testEC2EPKcNS0_12CodeLocationE
FNDA:251,_ZN7testing8internal26ParameterizedTestSuiteInfoI9ubpf_testEC2EPKcNS0_12CodeLocationE
FN:518,_ZNK7testing8internal26ParameterizedTestSuiteInfoI9ubpf_testE16GetTestSuiteNameB5cxx11Ev
FNDA:502,_ZNK7testing8internal26ParameterizedTestSuiteInfoI9ubpf_testE16GetTestSuiteNameB5cxx11Ev
FN:522,_ZNK7testing8internal26ParameterizedTestSuiteInfoI9ubpf_testE18GetTestSuiteTypeIdEv
FNDA:63252,_ZNK7testing8internal26ParameterizedTestSuiteInfoI9ubpf_testE18GetTestSuiteTypeIdEv
FN:529,_ZN7testing8internal26ParameterizedTestSuiteInfoI9ubpf_testE14AddTestPatternEPKcS5_PNS0_19TestMetaFactoryBaseINSt10filesystem7__cxx114pathEEENS0_12CodeLocationE
FNDA:502,_ZN7testing8internal26ParameterizedTestSuiteInfoI9ubpf_testE14AddTestPatternEPKcS5_PNS0_19TestMetaFactoryBaseINSt10filesystem7__cxx114pathEEENS0_12CodeLocationE
FN:537,_ZN7testing8internal26ParameterizedTestSuiteInfoI9ubpf_testE25AddTestSuiteInstantiationERKNSt7__cxx1112basic_stringIcSt11char_traitsIcESaIcEEEPFNS0_14ParamGeneratorINSt10filesystem7__cxx114pathEEEvEPFS9_RKNS_13TestParamInfoISF_EEEPKci
FNDA:251,_ZN7testing8internal26ParameterizedTestSuiteInfoI9ubpf_testE25AddTestSuiteInstantiationERKNSt7__cxx1112basic_stringIcSt11char_traitsIcESaIcEEEPFNS0_14ParamGeneratorINSt10filesystem7__cxx114pathEEEvEPFS9_RKNS_13TestParamInfoISF_EEEPKci
FN:550,_ZN7testing8internal26ParameterizedTestSuiteInfoI9ubpf_testE13RegisterTestsEv
FNDA:251,_ZN7testing8internal26ParameterizedTestSuiteInfoI9ubpf_testE13RegisterTestsEv
FN:619,_ZN7testing8internal26ParameterizedTestSuiteInfoI9ubpf_testE8TestInfoC2EPKcS6_PNS0_19TestMetaFactoryBaseINSt10filesystem7__cxx114pathEEENS0_12CodeLocationE
FNDA:502,_ZN7testing8internal26ParameterizedTestSuiteInfoI9ubpf_testE8TestInfoC2EPKcS6_PNS0_19TestMetaFactoryBaseINSt10filesystem7__cxx114pathEEENS0_12CodeLocationE
FN:655,_ZN7testing8internal26ParameterizedTestSuiteInfoI9ubpf_testE16IsValidParamNameERKNSt7__cxx1112basic_stringIcSt11char_traitsIcESaIcEEE
FNDA:62750,_ZN7testing8internal26ParameterizedTestSuiteInfoI9ubpf_testE16IsValidParamNameERKNSt7__cxx1112basic_stringIcSt11char_traitsIcESaIcEEE
FN:701,_ZN7testing8internal30ParameterizedTestSuiteRegistry25GetTestSuitePatternHolderI9ubpf_testEEPNS0_26ParameterizedTestSuiteInfoIT_EEPKcNS0_12CodeLocationE
FNDA:753,_ZN7testing8internal30ParameterizedTestSuiteRegistry25GetTestSuitePatternHolderI9ubpf_testEEPNS0_26ParameterizedTestSuiteInfoIT_EEPKcNS0_12CodeLocationE
DA:59,62750
DA:60,62750
DA:61,125500
DA:95,63754
DA:97,63754
DA:125,502
DA:138,188250
DA:141,62750
DA:142,62750
DA:151,63252
DA:152,63252
DA:154,63252
DA:155,63252
DA:160,126504
DA:167,502
DA:171,502
DA:184,0
DA:188,502
DA:189,0
DA:196,63754
DA:197,63252
DA:297,502
DA:298,502
DA:299,502
DA:299,0
DA:299,0
DA:299,0
DA:301,502
DA:302,502
DA:301,0
DA:302,0
DA:304,63252
DA:305,63252
DA:304,0
DA:305,0
DA:313,63754
DA:315,63754
DA:316,0
DA:316,0
DA:316,63754
DA:316,0
DA:318,0
DA:319,0
DA:318,126504
DA:319,126504
DA:321,0
DA:322,0
DA:323,0
DA:324,0
DA:321,62750
DA:322,62750
DA:323,62750
DA:324,62750
DA:325,0
DA:326,0
DA:325,0
DA:326,0
DA:335,0
DA:336,0
DA:337,0
DA:335,188250
DA:336,188250
DA:337,188250
DA:339,0
DA:342,0
DA:344,0
DA:345,0
DA:346,0
DA:339,63252
DA:342,63252
DA:344,0
DA:345,63252
DA:346,63252
DA:350,0
DA:354,0
DA:355,0
DA:378,62750
DA:379,62750
DA:380,62750
DA:381,125500
DA:389,0
DA:399,62750
DA:400,62750
DA:401,125
DA:402,125
DA:403,125
DA:401,125
DA:402,125
DA:403,125
DA:418,502
DA:439,502
DA:441,31375
DA:442,31375
DA:441,31375
DA:442,31375
DA:475,251
DA:513,251
DA:515,251
DA:518,502
DA:519,502
DA:522,63252
DA:529,502
DA:532,1004
DA:534,502
DA:537,251
DA:541,1004
DA:543,251
DA:550,251
DA:551,251
DA:553,251
DA:554,753
DA:555,1004
DA:556,502
DA:558,1004
DA:559,502
DA:560,1004
DA:561,502
DA:562,502
DA:563,502
DA:565,1004
DA:566,502
DA:567,502
DA:568,502
DA:570,502
DA:571,1004
DA:572,502
DA:574,189756
DA:575,62750
DA:577,125500
DA:579,125500
DA:582,62750
DA:584,0
DA:586,125500
DA:588,0
DA:590,62750
DA:592,62750
DA:593,62750
DA:595,62750
DA:596,249996
DA:599,62750
DA:603,62750
DA:608,251
DA:610,0
DA:611,0
DA:613,251
DA:619,502
DA:625,502
DA:636,1004
DA:637,251
DA:645,251
DA:655,62750
DA:657,62750
DA:660,195780
DA:661,133030
DA:701,753
DA:703,753
DA:704,753
DA:705,502
DA:706,502
DA:710,0
DA:717,502
DA:722,753
DA:723,251
DA:725,251
DA:727,753
end_of_record
SF:/usr/include/c++/9/bits/fs_dir.h
DA:150,127508
DA:365,502
DA:368,502
DA:369,502
DA:381,502
DA:383,502
DA:385,2008
DA:409,65260
DA:412,65260
DA:413,65260
DA:417,65260
DA:419,65260
DA:427,502
DA:428,502
DA:431,502
DA:432,502
end_of_record
SF:/usr/include/c++/9/bits/stl_tree.h
FN:1802,_ZNSt8_Rb_treeINSt7__cxx1112basic_stringIcSt11char_traitsIcESaIcEEES5_St9_IdentityIS5_ESt4lessIS5_ESaIS5_EE10_M_insert_IRKS5_NSB_11_Alloc_nodeEEESt17_Rb_tree_iteratorIS5_EPSt18_Rb_tree_node_baseSJ_OT_RT0_
FNDA:62750,_ZNSt8_Rb_treeINSt7__cxx1112basic_stringIcSt11char_traitsIcESaIcEEES5_St9_IdentityIS5_ESt4lessIS5_ESaIS5_EE10_M_insert_IRKS5_NSB_11_Alloc_nodeEEESt17_Rb_tree_iteratorIS5_EPSt18_Rb_tree_node_baseSJ_OT_RT0_
FN:1912,_ZNSt8_Rb_treeINSt7__cxx1112basic_stringIcSt11char_traitsIcESaIcEEES5_St9_IdentityIS5_ESt4lessIS5_ESaIS5_EE8_M_eraseEPSt13_Rb_tree_nodeIS5_E
FNDA:63503,_ZNSt8_Rb_treeINSt7__cxx1112basic_stringIcSt11char_traitsIcESaIcEEES5_St9_IdentityIS5_ESt4lessIS5_ESaIS5_EE8_M_eraseEPSt13_Rb_tree_nodeIS5_E
FN:1912,_ZNSt8_Rb_treeIjSt4pairIKjPFmmmmmmEESt10_Select1stIS4_ESt4lessIjESaIS4_EE8_M_eraseEPSt13_Rb_tree_nodeIS4_E
FNDA:1757,_ZNSt8_Rb_treeIjSt4pairIKjPFmmmmmmEESt10_Select1stIS4_ESt4lessIjESaIS4_EE8_M_eraseEPSt13_Rb_tree_nodeIS4_E
FN:2090,_ZNSt8_Rb_treeINSt7__cxx1112basic_stringIcSt11char_traitsIcESaIcEEES5_St9_IdentityIS5_ESt4lessIS5_ESaIS5_EE24_M_get_insert_unique_posERKS5_
FNDA:62750,_ZNSt8_Rb_treeINSt7__cxx1112basic_stringIcSt11char_traitsIcESaIcEEES5_St9_IdentityIS5_ESt4lessIS5_ESaIS5_EE24_M_get_insert_unique_posERKS5_
FN:2090,_ZNSt8_Rb_treeIjSt4pairIKjPFmmmmmmEESt10_Select1stIS4_ESt4lessIjESaIS4_EE24_M_get_insert_unique_posERS1_
FNDA:251,_ZNSt8_Rb_treeIjSt4pairIKjPFmmmmmmEESt10_Select1stIS4_ESt4lessIjESaIS4_EE24_M_get_insert_unique_posERS1_
FN:2144,_ZNSt8_Rb_treeINSt7__cxx1112basic_stringIcSt11char_traitsIcESaIcEEES5_St9_IdentityIS5_ESt4lessIS5_ESaIS5_EE16_M_insert_uniqueIRKS5_EESt4pairISt17_Rb_tree_iteratorIS5_EbEOT_
FNDA:62750,_ZNSt8_Rb_treeINSt7__cxx1112basic_stringIcSt11char_traitsIcESaIcEEES5_St9_IdentityIS5_ESt4lessIS5_ESaIS5_EE16_M_insert_uniqueIRKS5_EESt4pairISt17_Rb_tree_iteratorIS5_EbEOT_
FN:2192,_ZNSt8_Rb_treeIjSt4pairIKjPFmmmmmmEESt10_Select1stIS4_ESt4lessIjESaIS4_EE29_M_get_insert_hint_unique_posESt23_Rb_tree_const_iteratorIS4_ERS1_
FNDA:1506,_ZNSt8_Rb_treeIjSt4pairIKjPFmmmmmmEESt10_Select1stIS4_ESt4lessIjESaIS4_EE29_M_get_insert_hint_unique_posESt23_Rb_tree_const_iteratorIS4_ERS1_
FN:2572,_ZNKSt8_Rb_treeINSt7__cxx1112basic_stringIcSt11char_traitsIcESaIcEEES5_St9_IdentityIS5_ESt4lessIS5_ESaIS5_EE4findERKS5_
FNDA:62750,_ZNKSt8_Rb_treeINSt7__cxx1112basic_stringIcSt11char_traitsIcESaIcEEES5_St9_IdentityIS5_ESt4lessIS5_ESaIS5_EE4findERKS5_
DA:146,502
DA:152,251
DA:173,753
DA:174,753
DA:175,753
DA:176,753
DA:206,753
DA:208,753
DA:209,753
DA:210,753
DA:211,753
DA:234,2766
DA:235,2766
DA:238,1142300
DA:239,1142300
DA:273,142778
DA:274,63001
DA:277,1260
DA:278,1260
DA:285,1260
DA:287,1260
DA:288,1260
DA:300,13052
DA:302,13052
DA:303,13052
DA:315,13805
DA:319,1470
DA:345,188250
DA:348,64256
DA:349,62750
DA:352,1506
DA:353,1506
DA:394,62750
DA:538,62750
DA:539,64507
DA:546,62750
DA:548,125500
DA:566,64256
DA:567,64256
DA:579,62750
DA:580,125500
DA:583,1506
DA:584,1506
DA:628,62750
DA:630,62750
DA:631,62750
DA:637,1506
DA:642,1506
DA:648,1506
DA:650,1506
DA:651,1506
DA:673,753
DA:680,502
DA:684,502
DA:715,251
DA:716,251
DA:733,0
DA:734,0
DA:741,2510
DA:742,1255
DA:749,63754
DA:753,62750
DA:760,127257
DA:761,127257
DA:764,62750
DA:765,62750
DA:772,1142300
DA:790,1142300
DA:794,174696
DA:798,110440
DA:802,435736
DA:806,371480
DA:814,178461
DA:815,178461
DA:944,502
DA:947,251
DA:949,251
DA:999,753
DA:1000,753
DA:1011,14015
DA:1012,210
DA:1019,1716
DA:1020,210
DA:1023,188250
DA:1024,125500
DA:1047,1506
DA:1114,251
DA:1116,1757
DA:1117,1757
DA:1118,1506
DA:1802,62750
DA:1811,62750
DA:1812,138552
DA:1815,62750
DA:1817,62750
DA:1818,62750
DA:1819,62750
DA:1820,62750
DA:1912,63503
DA:1916,126253
DA:1918,62750
DA:1919,62750
DA:1920,62750
DA:1921,62750
DA:1923,63503
DA:1912,1757
DA:1916,3263
DA:1918,1506
DA:1919,1506
DA:1920,1506
DA:1921,1506
DA:1923,1757
DA:1945,62750
DA:1949,544670
DA:1950,481920
DA:1951,110440
DA:1953,371480
DA:1954,62750
DA:2090,62750
DA:2094,62750
DA:2095,62750
DA:2096,62750
DA:2097,544670
DA:2099,481920
DA:2100,481920
DA:2101,481920
DA:2103,62750
DA:2104,62750
DA:2106,13554
DA:2107,502
DA:2109,62248
DA:2111,62248
DA:2112,62248
DA:2113,0
DA:2090,251
DA:2094,251
DA:2095,251
DA:2096,251
DA:2097,251
DA:2099,0
DA:2100,0
DA:2101,0
DA:2103,251
DA:2104,251
DA:2106,251
DA:2107,251
DA:2109,0
DA:2111,0
DA:2112,0
DA:2113,0
DA:2144,62750
DA:2152,62750
DA:2153,62750
DA:2155,62750
DA:2157,62750
DA:2158,62750
DA:2160,62750
DA:2163,0
DA:2192,1506
DA:2196,1506
DA:2200,1506
DA:2202,1506
DA:2203,1506
DA:2204,1255
DA:2206,251
DA:2208,0
DA:2211,0
DA:2212,0
DA:2213,0
DA:2214,0
DA:2216,0
DA:2217,0
DA:2219,0
DA:2222,0
DA:2224,0
DA:2227,0
DA:2228,0
DA:2229,0
DA:2230,0
DA:2232,0
DA:2233,0
DA:2235,0
DA:2238,0
DA:2242,0
DA:2572,62750
DA:2575,62750
DA:2576,62750
DA:2577,52710
DA:2578,62750
end_of_record
SF:/usr/include/c++/9/bits/shared_ptr.h
DA:103,3514
DA:129,502
DA:139,1506
DA:254,502
DA:255,502
end_of_record
SF:/usr/include/c++/9/ext/string_conversions.h
FN:54,_ZN9__gnu_cxx6__stoaIyycJiEEET0_PFT_PKT1_PPS3_DpT2_EPKcS5_PmS9_
FNDA:0,_ZN9__gnu_cxx6__stoaIyycJiEEET0_PFT_PKT1_PPS3_DpT2_EPKcS5_PmS9_
DA:54,0
DA:63,0
DA:64,0
DA:66,0
DA:80,0
DA:82,0
DA:83,0
DA:84,0
DA:85,0
DA:86,0
DA:88,0
DA:90,0
DA:91,0
DA:93,0
end_of_record
SF:/usr/include/c++/9/bits/basic_ios.h
DA:117,4258
DA:118,4258
DA:137,4258
DA:201,4258
DA:202,4258
end_of_record
SF:/usr/include/c++/9/ext/alloc_traits.h
DA:97,506395
DA:98,506395
end_of_record
SF:/usr/include/c++/9/bits/allocated_ptr.h
DA:52,0
DA:53,0
DA:70,0
DA:73,0
end_of_record
SF:/usr/include/c++/9/bits/unique_ptr.h
DA:75,189294
DA:81,189294
DA:82,189294
DA:146,63754
DA:147,63252
DA:150,63754
DA:151,63754
DA:153,63754
DA:154,1070260
DA:155,949070
DA:199,63754
DA:200,63754
DA:211,63754
DA:212,63754
DA:257,63754
DA:258,63754
DA:286,886320
DA:290,886320
DA:291,886320
DA:292,1011860
DA:294,0
DA:344,314252
DA:347,125500
DA:352,314252
DA:355,314252
DA:360,1070260
DA:361,629002
DA:365,949070
DA:366,949070
DA:381,63754
DA:383,63754
DA:384,63754
DA:395,125500
DA:400,125500
DA:401,125500
DA:402,62750
end_of_record
SF:/usr/include/c++/9/bits/quoted_string.h
FN:117,_ZNSt8__detaillsIcSt11char_traitsIcERKNSt7__cxx1112basic_stringIcS2_SaIcEEEEERSt13basic_ostreamIT_T0_ESD_RKNS_14_Quoted_stringIT1_SA_EE
FNDA:62750,_ZNSt8__detaillsIcSt11char_traitsIcERKNSt7__cxx1112basic_stringIcS2_SaIcEEEEERSt13basic_ostreamIT_T0_ESD_RKNS_14_Quoted_stringIT1_SA_EE
DA:55,62750
DA:117,62750
DA:120,62750
DA:121,62750
DA:122,1293150
DA:124,1230400
DA:125,0
DA:126,1230400
DA:128,62750
DA:130,124496
end_of_record
SF:/usr/include/c++/9/bits/stl_algobase.h
DA:198,10560
DA:203,1141050
DA:204,224896
DA:222,5280
DA:227,5280
DA:228,1317
DA:280,1211
DA:295,434
DA:375,434
DA:384,434
DA:385,434
DA:386,434
DA:387,434
DA:393,434
DA:398,434
DA:404,434
DA:438,434
DA:440,868
DA:465,434
DA:474,434
end_of_record
SF:/usr/include/c++/9/typeinfo
DA:120,63754
DA:122,63754
DA:123,63754
DA:124,0
end_of_record
SF:/usr/include/c++/9/iostream
end_of_record
SF:/usr/include/c++/9/bits/ptr_traits.h
DA:146,2675570
DA:147,2675570
end_of_record
SF:/home/alanjo/ubpf/build/_deps/googletest-src/googletest/include/gtest/gtest-printers.h
FN:1035,_ZN7testing13PrintToStringINSt10filesystem7__cxx114pathEEENSt7__cxx1112basic_stringIcSt11char_traitsIcESaIcEEERKT_
FNDA:62750,_ZN7testing13PrintToStringINSt10filesystem7__cxx114pathEEENSt7__cxx1112basic_stringIcSt11char_traitsIcESaIcEEERKT_
DA:213,62750
DA:216,62750
DA:305,62750
DA:311,62750
DA:439,62750
DA:440,62750
DA:693,62750
DA:702,62750
DA:883,62750
DA:884,62750
DA:885,62750
DA:995,62750
DA:999,62750
DA:1035,62750
DA:1036,62750
DA:1037,62750
DA:1038,62750
end_of_record
SF:/usr/include/c++/9/ext/aligned_buffer.h
DA:64,2766
DA:65,2766
DA:68,1142300
DA:69,1142300
DA:72,2766
DA:73,2766
DA:76,1142300
DA:77,1142300
DA:102,0
DA:104,0
DA:114,0
DA:115,0
end_of_record
SF:/usr/include/c++/9/bits/postypes.h
DA:133,224
DA:134,224
end_of_record
SF:/usr/include/c++/9/bits/stl_function.h
DA:385,178461
DA:386,1141050
DA:433,65260
DA:443,330391
DA:1139,1203800
DA:1155,1255
DA:1156,1255
end_of_record
SF:/usr/include/c++/9/bits/stl_uninitialized.h
FN:76,_ZNSt20__uninitialized_copyILb0EE13__uninit_copyIN9__gnu_cxx17__normal_iteratorIPKNSt10filesystem7__cxx114pathESt6vectorIS6_SaIS6_EEEEPS6_EET0_T_SF_SE_
FNDA:502,_ZNSt20__uninitialized_copyILb0EE13__uninit_copyIN9__gnu_cxx17__normal_iteratorIPKNSt10filesystem7__cxx114pathESt6vectorIS6_SaIS6_EEEEPS6_EET0_T_SF_SE_
DA:76,502
DA:79,502
DA:82,63252
DA:83,62750
DA:84,502
DA:86,0
DA:88,0
DA:89,0
DA:99,434
DA:101,434
DA:115,434
DA:134,434
DA:140,434
DA:305,434
DA:307,434
DA:905,63754
DA:912,63754
DA:913,63754
DA:924,1022
DA:927,1022
DA:928,511
DA:929,198
DA:930,511
DA:949,0
DA:950,127508
DA:958,1211
DA:964,69232
end_of_record
SF:/home/alanjo/ubpf/build/_deps/googletest-src/googletest/include/gtest/gtest-message.h
DA:92,251080
DA:114,62750
DA:130,125500
end_of_record
SF:/usr/include/c++/9/bits/allocator.h
DA:137,197992
DA:140,831552
DA:141,765662
DA:150,251
DA:152,1083700
end_of_record
SF:/usr/include/c++/9/bits/stl_iterator.h
DA:803,138210
DA:804,1506
DA:816,1356910
DA:820,502
DA:824,1356910
DA:826,125500
DA:827,1231410
DA:864,1682
DA:865,1682
DA:868,5729
DA:890,63462
DA:893,63462
DA:904,1358910
DA:907,1358910
DA:986,5280
DA:989,5280
DA:1007,434
DA:1009,434
end_of_record
SF:/usr/include/c++/9/initializer_list
DA:71,251
DA:75,251
DA:79,251
end_of_record
SF:/usr/include/c++/9/bits/alloc_traits.h
DA:442,62750
DA:443,62750
DA:468,610355
DA:469,610355
DA:481,122488
DA:483,128437
DA:494,65260
DA:496,65260
DA:504,473014
DA:505,473014
DA:513,434
DA:514,506395
DA:544,908
DA:545,908
DA:552,908
DA:556,908
end_of_record
SF:/usr/include/c++/9/cmath
DA:475,0
DA:476,0
end_of_record
SF:/usr/include/c++/9/fstream
DA:579,224
DA:581,224
DA:582,224
end_of_record
SF:/usr/include/c++/9/bits/move.h
DA:47,252757
DA:74,446606
DA:99,1715140
DA:138,2708460
DA:139,2675570
DA:182,125500
DA:193,125500
DA:194,125500
DA:195,125500
end_of_record
SF:/usr/include/c++/9/streambuf
end_of_record
SF:/usr/include/c++/9/bits/basic_string.tcc
FN:132,_ZNSt7__cxx1112basic_stringIcSt11char_traitsIcESaIcEE9_M_createERmm
FNDA:0,_ZNSt7__cxx1112basic_stringIcSt11char_traitsIcESaIcEE9_M_createERmm
FN:206,_ZNSt7__cxx1112basic_stringIcSt11char_traitsIcESaIcEE12_M_constructIPcEEvT_S7_St20forward_iterator_tag
FNDA:0,_ZNSt7__cxx1112basic_stringIcSt11char_traitsIcESaIcEE12_M_constructIPcEEvT_S7_St20forward_iterator_tag
FN:206,_ZNSt7__cxx1112basic_stringIcSt11char_traitsIcESaIcEE12_M_constructIPKcEEvT_S8_St20forward_iterator_tag
FNDA:0,_ZNSt7__cxx1112basic_stringIcSt11char_traitsIcESaIcEE12_M_constructIPKcEEvT_S8_St20forward_iterator_tag
FN:254,_ZNSt7__cxx1112basic_stringIcSt11char_traitsIcESaIcEE9_M_assignERKS4_
FNDA:0,_ZNSt7__cxx1112basic_stringIcSt11char_traitsIcESaIcEE9_M_assignERKS4_
FN:310,_ZNSt7__cxx1112basic_stringIcSt11char_traitsIcESaIcEE9_M_mutateEmmPKcm
FNDA:0,_ZNSt7__cxx1112basic_stringIcSt11char_traitsIcESaIcEE9_M_mutateEmmPKcm
FN:359,_ZNSt7__cxx1112basic_stringIcSt11char_traitsIcESaIcEE9_M_appendEPKcm
FNDA:208920,_ZNSt7__cxx1112basic_stringIcSt11char_traitsIcESaIcEE9_M_appendEPKcm
FN:421,_ZNSt7__cxx1112basic_stringIcSt11char_traitsIcESaIcEE10_M_replaceEmmPKcm
FNDA:461952,_ZNSt7__cxx1112basic_stringIcSt11char_traitsIcESaIcEE10_M_replaceEmmPKcm
FN:1188,_ZNKSt7__cxx1112basic_stringIcSt11char_traitsIcESaIcEE4findEPKcmm
FNDA:0,_ZNKSt7__cxx1112basic_stringIcSt11char_traitsIcESaIcEE4findEPKcmm
FN:1418,_ZNKSt7__cxx1112basic_stringIcSt11char_traitsIcESaIcEE7compareEPKc
FNDA:0,_ZNKSt7__cxx1112basic_stringIcSt11char_traitsIcESaIcEE7compareEPKc
DA:132,0
DA:137,0
DA:138,0
DA:143,0
DA:145,0
DA:147,0
DA:148,0
DA:153,0
DA:206,0
DA:211,0
DA:212,0
DA:215,0
DA:217,0
DA:219,0
DA:220,0
DA:225,0
DA:232,0
DA:233,0
DA:206,0
DA:211,0
DA:212,0
DA:215,0
DA:217,0
DA:219,0
DA:220,0
DA:225,0
DA:232,0
DA:233,0
DA:254,0
DA:257,0
DA:259,0
DA:260,0
DA:262,0
DA:264,0
DA:265,0
DA:266,0
DA:267,0
DA:268,0
DA:271,0
DA:272,0
DA:274,0
DA:276,0
DA:310,0
DA:314,0
DA:316,0
DA:317,0
DA:319,0
DA:320,0
DA:321,0
DA:322,0
DA:323,0
DA:324,0
DA:325,0
DA:327,0
DA:328,0
DA:329,0
DA:330,0
DA:359,208920
DA:362,208920
DA:364,208920
DA:366,94738
DA:367,94738
DA:370,114182
DA:372,208920
DA:373,208920
DA:421,461952
DA:425,461952
DA:427,461952
DA:428,461952
DA:430,461952
DA:432,330391
DA:434,330391
DA:435,330391
DA:437,330391
DA:438,0
DA:439,330391
DA:440,461952
DA:445,0
DA:446,0
DA:447,0
DA:448,0
DA:449,0
DA:451,0
DA:452,461952
DA:453,0
DA:454,0
DA:457,0
DA:458,0
DA:459,0
DA:466,131561
DA:468,461952
DA:469,461952
DA:1188,0
DA:1193,0
DA:1195,0
DA:1196,0
DA:1197,0
DA:1200,0
DA:1201,0
DA:1202,0
DA:1203,0
DA:1204,0
DA:1206,0
DA:1209,0
DA:1210,0
DA:1215,0
DA:1216,0
DA:1217,0
DA:1418,0
DA:1422,0
DA:1423,0
DA:1424,0
DA:1425,0
DA:1426,0
DA:1427,0
DA:1428,0
end_of_record
SF:/usr/include/c++/9/bits/locale_facets.h
FN:872,_ZNKSt5ctypeIcE5widenEc
FNDA:5340,_ZNKSt5ctypeIcE5widenEc
FN:1084,_ZNKSt5ctypeIcE8do_widenEc
FNDA:0,_ZNKSt5ctypeIcE8do_widenEc
DA:872,5340
DA:874,5340
DA:875,5340
DA:876,0
DA:877,0
DA:1084,0
DA:1085,0
end_of_record
SF:/usr/include/c++/9/bits/shared_ptr_base.h
FN:131,_ZNSt16_Sp_counted_baseILN9__gnu_cxx12_Lock_policyE2EE10_M_destroyEv
FNDA:0,_ZNSt16_Sp_counted_baseILN9__gnu_cxx12_Lock_policyE2EE10_M_destroyEv
FN:148,_ZNSt16_Sp_counted_baseILN9__gnu_cxx12_Lock_policyE2EE10_M_releaseEv
FNDA:2510,_ZNSt16_Sp_counted_baseILN9__gnu_cxx12_Lock_policyE2EE10_M_releaseEv
FN:376,_ZNSt15_Sp_counted_ptrIPKN7testing8internal2REELN9__gnu_cxx12_Lock_policyE2EE10_M_disposeEv
FNDA:0,_ZNSt15_Sp_counted_ptrIPKN7testing8internal2REELN9__gnu_cxx12_Lock_policyE2EE10_M_disposeEv
FN:376,_ZNSt15_Sp_counted_ptrIPN7testing8internal23ParamGeneratorInterfaceIbEELN9__gnu_cxx12_Lock_policyE2EE10_M_disposeEv
FNDA:0,_ZNSt15_Sp_counted_ptrIPN7testing8internal23ParamGeneratorInterfaceIbEELN9__gnu_cxx12_Lock_policyE2EE10_M_disposeEv
FN:376,_ZNSt15_Sp_counted_ptrIPN7testing8internal23ParamGeneratorInterfaceINSt10filesystem7__cxx114pathEEELN9__gnu_cxx12_Lock_policyE2EE10_M_disposeEv
FNDA:502,_ZNSt15_Sp_counted_ptrIPN7testing8internal23ParamGeneratorInterfaceINSt10filesystem7__cxx114pathEEELN9__gnu_cxx12_Lock_policyE2EE10_M_disposeEv
FN:376,_ZNSt15_Sp_counted_ptrIPN7testing8internal26ParameterizedTestSuiteInfoI9ubpf_testE8TestInfoELN9__gnu_cxx12_Lock_policyE2EE10_M_disposeEv
FNDA:502,_ZNSt15_Sp_counted_ptrIPN7testing8internal26ParameterizedTestSuiteInfoI9ubpf_testE8TestInfoELN9__gnu_cxx12_Lock_policyE2EE10_M_disposeEv
FN:380,_ZNSt15_Sp_counted_ptrIPKN7testing8internal2REELN9__gnu_cxx12_Lock_policyE2EE10_M_destroyEv
FNDA:0,_ZNSt15_Sp_counted_ptrIPKN7testing8internal2REELN9__gnu_cxx12_Lock_policyE2EE10_M_destroyEv
FN:380,_ZNSt15_Sp_counted_ptrIPN7testing8internal23ParamGeneratorInterfaceIbEELN9__gnu_cxx12_Lock_policyE2EE10_M_destroyEv
FNDA:0,_ZNSt15_Sp_counted_ptrIPN7testing8internal23ParamGeneratorInterfaceIbEELN9__gnu_cxx12_Lock_policyE2EE10_M_destroyEv
FN:380,_ZNSt15_Sp_counted_ptrIPN7testing8internal23ParamGeneratorInterfaceINSt10filesystem7__cxx114pathEEELN9__gnu_cxx12_Lock_policyE2EE10_M_destroyEv
FNDA:502,_ZNSt15_Sp_counted_ptrIPN7testing8internal23ParamGeneratorInterfaceINSt10filesystem7__cxx114pathEEELN9__gnu_cxx12_Lock_policyE2EE10_M_destroyEv
FN:380,_ZNSt15_Sp_counted_ptrIPN7testing8internal26ParameterizedTestSuiteInfoI9ubpf_testE8TestInfoELN9__gnu_cxx12_Lock_policyE2EE10_M_destroyEv
FNDA:502,_ZNSt15_Sp_counted_ptrIPN7testing8internal26ParameterizedTestSuiteInfoI9ubpf_testE8TestInfoELN9__gnu_cxx12_Lock_policyE2EE10_M_destroyEv
FN:384,_ZNSt15_Sp_counted_ptrIPN7testing8internal23ParamGeneratorInterfaceINSt10filesystem7__cxx114pathEEELN9__gnu_cxx12_Lock_policyE2EE14_M_get_deleterERKSt9type_info
FNDA:0,_ZNSt15_Sp_counted_ptrIPN7testing8internal23ParamGeneratorInterfaceINSt10filesystem7__cxx114pathEEELN9__gnu_cxx12_Lock_policyE2EE14_M_get_deleterERKSt9type_info
FN:384,_ZNSt15_Sp_counted_ptrIPN7testing8internal26ParameterizedTestSuiteInfoI9ubpf_testE8TestInfoELN9__gnu_cxx12_Lock_policyE2EE14_M_get_deleterERKSt9type_info
FNDA:0,_ZNSt15_Sp_counted_ptrIPN7testing8internal26ParameterizedTestSuiteInfoI9ubpf_testE8TestInfoELN9__gnu_cxx12_Lock_policyE2EE14_M_get_deleterERKSt9type_info
FN:404,_ZNSt15_Sp_counted_ptrIDnLN9__gnu_cxx12_Lock_policyE2EE10_M_disposeEv
FNDA:0,_ZNSt15_Sp_counted_ptrIDnLN9__gnu_cxx12_Lock_policyE2EE10_M_disposeEv
FN:552,_ZNSt23_Sp_counted_ptr_inplaceISt5mutexSaIS0_ELN9__gnu_cxx12_Lock_policyE2EED2Ev
FNDA:0,_ZNSt23_Sp_counted_ptr_inplaceISt5mutexSaIS0_ELN9__gnu_cxx12_Lock_policyE2EED2Ev
FN:552,_ZNSt23_Sp_counted_ptr_inplaceISt5mutexSaIS0_ELN9__gnu_cxx12_Lock_policyE2EED0Ev
FNDA:0,_ZNSt23_Sp_counted_ptr_inplaceISt5mutexSaIS0_ELN9__gnu_cxx12_Lock_policyE2EED0Ev
FN:555,_ZNSt23_Sp_counted_ptr_inplaceISt5mutexSaIS0_ELN9__gnu_cxx12_Lock_policyE2EE10_M_disposeEv
FNDA:0,_ZNSt23_Sp_counted_ptr_inplaceISt5mutexSaIS0_ELN9__gnu_cxx12_Lock_policyE2EE10_M_disposeEv
FN:562,_ZNSt23_Sp_counted_ptr_inplaceISt5mutexSaIS0_ELN9__gnu_cxx12_Lock_policyE2EE10_M_destroyEv
FNDA:0,_ZNSt23_Sp_counted_ptr_inplaceISt5mutexSaIS0_ELN9__gnu_cxx12_Lock_policyE2EE10_M_destroyEv
FN:621,_ZNSt14__shared_countILN9__gnu_cxx12_Lock_policyE2EEC2IPN7testing8internal23ParamGeneratorInterfaceINSt10filesystem7__cxx114pathEEEEET_
FNDA:502,_ZNSt14__shared_countILN9__gnu_cxx12_Lock_policyE2EEC2IPN7testing8internal23ParamGeneratorInterfaceINSt10filesystem7__cxx114pathEEEEET_
FN:621,_ZNSt14__shared_countILN9__gnu_cxx12_Lock_policyE2EEC2IPN7testing8internal26ParameterizedTestSuiteInfoI9ubpf_testE8TestInfoEEET_
FNDA:502,_ZNSt14__shared_countILN9__gnu_cxx12_Lock_policyE2EEC2IPN7testing8internal26ParameterizedTestSuiteInfoI9ubpf_testE8TestInfoEEET_
FN:1167,_ZNSt12__shared_ptrIKN7testing8internal23ParamGeneratorInterfaceINSt10filesystem7__cxx114pathEEELN9__gnu_cxx12_Lock_policyE2EEC2ERKSA_
FNDA:0,_ZNSt12__shared_ptrIKN7testing8internal23ParamGeneratorInterfaceINSt10filesystem7__cxx114pathEEELN9__gnu_cxx12_Lock_policyE2EEC2ERKSA_
FN:1167,_ZNSt12__shared_ptrIN7testing8internal26ParameterizedTestSuiteInfoI9ubpf_testE8TestInfoELN9__gnu_cxx12_Lock_policyE2EEC2ERKS8_
FNDA:502,_ZNSt12__shared_ptrIN7testing8internal26ParameterizedTestSuiteInfoI9ubpf_testE8TestInfoELN9__gnu_cxx12_Lock_policyE2EEC2ERKS8_
FN:1167,_ZNSt12__shared_ptrINSt10filesystem7__cxx114_DirELN9__gnu_cxx12_Lock_policyE2EEC2ERKS5_
FNDA:1004,_ZNSt12__shared_ptrINSt10filesystem7__cxx114_DirELN9__gnu_cxx12_Lock_policyE2EEC2ERKS5_
DA:117,1004
DA:118,1004
DA:121,0
DA:131,0
DA:132,0
DA:138,1506
DA:139,3012
DA:148,2510
DA:152,5020
DA:155,1506
DA:167,3012
DA:171,1506
DA:174,2510
DA:368,1004
DA:372,1004
DA:373,1004
DA:376,0
DA:377,0
DA:376,502
DA:377,502
DA:376,502
DA:377,502
DA:376,0
DA:377,0
DA:380,0
DA:381,0
DA:380,502
DA:381,502
DA:380,502
DA:381,502
DA:380,0
DA:381,0
DA:384,0
DA:385,0
DA:384,0
DA:385,0
DA:404,0
DA:412,0
DA:418,0
DA:526,0
DA:533,0
DA:552,0
DA:552,0
DA:552,0
DA:555,0
DA:557,0
DA:558,0
DA:562,0
DA:564,0
DA:565,0
DA:566,0
DA:567,0
DA:594,0
DA:616,1506
DA:621,502
DA:625,502
DA:627,0
DA:629,0
DA:630,0
DA:632,502
DA:621,502
DA:625,502
DA:627,0
DA:629,0
DA:630,0
DA:632,502
DA:635,1004
DA:636,1004
DA:727,3514
DA:729,0
DA:730,2510
DA:733,1506
DA:734,1506
DA:736,1506
DA:737,1506
DA:756,1004
DA:758,1004
DA:759,502
DA:760,1004
DA:776,65762
DA:777,65762
DA:1012,315256
DA:1015,315256
DA:1020,315256
DA:1021,315256
DA:1118,502
DA:1119,502
DA:1124,1004
DA:1125,1004
DA:1129,1004
DA:1167,502
DA:1167,0
DA:1167,1004
DA:1169,5522
DA:1176,1004
DA:1177,1004
DA:1179,502
DA:1180,502
DA:1309,251502
DA:1332,65762
DA:1333,65260
DA:1388,1004
end_of_record
SF:/usr/include/c++/9/bits/ios_base.h
FN:1036,_ZSt3hexRSt8ios_base
FNDA:740,_ZSt3hexRSt8ios_base
DA:83,740
DA:84,740
DA:87,740
DA:88,740
DA:95,740
DA:96,740
DA:99,740
DA:100,740
DA:103,740
DA:104,740
DA:165,4258
DA:166,4258
DA:675,740
DA:677,740
DA:678,740
DA:679,740
DA:680,740
DA:1036,740
DA:1038,740
DA:1039,740
end_of_record
SF:/usr/include/c++/9/bits/basic_string.h
FN:480,_ZNSt7__cxx1112basic_stringIcSt11char_traitsIcESaIcEEC2ERKS4_mm
FNDA:63658,_ZNSt7__cxx1112basic_stringIcSt11char_traitsIcESaIcEEC2ERKS4_mm
FN:529,_ZNSt7__cxx1112basic_stringIcSt11char_traitsIcESaIcEEC2IS3_EEPKcRKS3_
FNDA:2879,_ZNSt7__cxx1112basic_stringIcSt11char_traitsIcESaIcEEC2IS3_EEPKcRKS3_
FN:736,_ZNSt7__cxx1112basic_stringIcSt11char_traitsIcESaIcEEaSEOS4_
FNDA:908,_ZNSt7__cxx1112basic_stringIcSt11char_traitsIcESaIcEEaSEOS4_
FN:1267,_ZNSt7__cxx1112basic_stringIcSt11char_traitsIcESaIcEE6appendEPKc
FNDA:502,_ZNSt7__cxx1112basic_stringIcSt11char_traitsIcESaIcEE6appendEPKc
FN:1708,_ZNSt7__cxx1112basic_stringIcSt11char_traitsIcESaIcEE6insertEmPKc
FNDA:0,_ZNSt7__cxx1112basic_stringIcSt11char_traitsIcESaIcEE6insertEmPKc
FN:1940,_ZNSt7__cxx1112basic_stringIcSt11char_traitsIcESaIcEE7replaceEmmPKcm
FNDA:125500,_ZNSt7__cxx1112basic_stringIcSt11char_traitsIcESaIcEE7replaceEmmPKcm
FN:2838,_ZNKSt7__cxx1112basic_stringIcSt11char_traitsIcESaIcEE6substrEmm
FNDA:63658,_ZNKSt7__cxx1112basic_stringIcSt11char_traitsIcESaIcEE6substrEmm
FN:2857,_ZNKSt7__cxx1112basic_stringIcSt11char_traitsIcESaIcEE7compareERKS4_
FNDA:1141050,_ZNKSt7__cxx1112basic_stringIcSt11char_traitsIcESaIcEE7compareERKS4_
FN:6060,_ZStplIcSt11char_traitsIcESaIcEENSt7__cxx1112basic_stringIT_T0_T1_EERKS8_PKS5_
FNDA:502,_ZStplIcSt11char_traitsIcESaIcEENSt7__cxx1112basic_stringIT_T0_T1_EERKS8_PKS5_
FN:6088,_ZStplIcSt11char_traitsIcESaIcEENSt7__cxx1112basic_stringIT_T0_T1_EEOS8_RKS8_
FNDA:118,_ZStplIcSt11char_traitsIcESaIcEENSt7__cxx1112basic_stringIT_T0_T1_EEOS8_RKS8_
FN:6112,_ZStplIcSt11char_traitsIcESaIcEENSt7__cxx1112basic_stringIT_T0_T1_EEPKS5_OS8_
FNDA:0,_ZStplIcSt11char_traitsIcESaIcEENSt7__cxx1112basic_stringIT_T0_T1_EEPKS5_OS8_
DA:129,65260
DA:138,65260
DA:149,65260
DA:150,130520
DA:154,1078860
DA:160,131139
DA:161,131139
DA:163,571851
DA:164,698473
DA:182,175279
DA:183,0
DA:186,802295
DA:187,802295
DA:190,330391
DA:194,957740
DA:197,572102
DA:204,1878090
DA:207,1878090
DA:214,47904
DA:215,0
DA:218,802215
DA:220,802215
DA:221,2232
DA:222,828
DA:225,1878090
DA:226,1878090
DA:233,0
DA:235,1046160
DA:236,0
DA:240,602884
DA:241,602884
DA:247,700758
DA:251,700758
DA:267,700758
DA:270,2879
DA:290,731167
DA:291,602884
DA:294,968415
DA:295,968415
DA:314,252816
DA:316,252816
DA:317,0
DA:324,462454
DA:326,462454
DA:327,0
DA:333,189158
DA:335,189158
DA:341,330391
DA:343,330391
DA:344,330391
DA:350,361131
DA:352,265633
DA:353,10034
DA:355,0
DA:359,0
DA:361,0
DA:362,0
DA:364,330391
DA:396,0
DA:397,0
DA:400,0
DA:402,0
DA:405,75300
DA:407,75300
DA:409,0
DA:411,75300
DA:414,75300
DA:435,2232
DA:437,2232
DA:438,2232
DA:452,505961
DA:454,505459
DA:455,505459
DA:480,63658
DA:482,63658
DA:484,63658
DA:485,127316
DA:486,127316
DA:487,63658
DA:514,128260
DA:516,65260
DA:517,191260
DA:529,2879
DA:530,2879
DA:531,2879
DA:556,127375
DA:557,127375
DA:559,127375
DA:561,79631
DA:566,47744
DA:567,47744
DA:573,127375
DA:574,127257
DA:575,127257
DA:654,65260
DA:655,65260
DA:661,1046160
DA:662,444079
DA:669,210
DA:700,3518
DA:736,908
DA:739,908
DA:746,908
DA:749,908
DA:751,908
DA:754,828
DA:755,1588
DA:756,1736
DA:763,80
DA:765,80
DA:770,80
DA:771,80
DA:777,80
DA:778,80
DA:779,80
DA:780,80
DA:782,80
DA:783,80
DA:786,0
DA:790,908
DA:791,908
DA:838,62750
DA:839,62750
DA:854,62750
DA:855,62750
DA:934,1119900
DA:940,633298
DA:945,462454
DA:946,461952
DA:997,670872
DA:999,670872
DA:1027,64662
DA:1028,63754
DA:1035,129440
DA:1036,129440
DA:1050,133280
DA:1053,133030
DA:1158,250
DA:1161,250
DA:1172,620
DA:1173,620
DA:1225,738
DA:1226,620
DA:1267,502
DA:1270,502
DA:1271,502
DA:1272,502
DA:1368,210
DA:1370,210
DA:1708,0
DA:1712,0
DA:1940,125500
DA:1945,125500
DA:2304,188934
DA:2305,125974
DA:2316,1331120
DA:2317,0
DA:2397,7046
DA:2400,7046
DA:2838,63658
DA:2840,63658
DA:2857,1141050
DA:2859,1141050
DA:2860,1141050
DA:2861,1141050
DA:2863,1141050
DA:2864,1141050
DA:2865,75300
DA:2866,1141050
DA:6060,502
DA:6063,502
DA:6064,502
DA:6065,502
DA:6088,118
DA:6090,118
DA:6112,0
DA:6114,0
DA:6178,502
DA:6180,502
DA:6229,1141050
DA:6232,1141050
DA:6419,190078
DA:6424,190078
DA:6526,210
DA:6527,210
end_of_record
SF:/usr/include/x86_64-linux-gnu/c++/9/bits/gthr-default.h
DA:248,5522
DA:250,5522
DA:252,5522
end_of_record
SF:/usr/include/c++/9/bits/fs_path.h
FN:175,_ZNSt10filesystem7__cxx114pathC2ERKS1_
FNDA:439500,_ZNSt10filesystem7__cxx114pathC2ERKS1_
FN:177,_ZNSt10filesystem7__cxx114pathC2EOS1_
FNDA:63754,_ZNSt10filesystem7__cxx114pathC2EOS1_
FN:185,_ZNSt10filesystem7__cxx114pathC2EONSt7__cxx1112basic_stringIcSt11char_traitsIcESaIcEEENS1_6formatE
FNDA:63252,_ZNSt10filesystem7__cxx114pathC2EONSt7__cxx1112basic_stringIcSt11char_traitsIcESaIcEEENS1_6formatE
FN:191,_ZNSt10filesystem7__cxx114pathC2IA6_cS1_EERKT_NS1_6formatE
FNDA:64758,_ZNSt10filesystem7__cxx114pathC2IA6_cS1_EERKT_NS1_6formatE
FN:191,_ZNSt10filesystem7__cxx114pathC2IA7_cS1_EERKT_NS1_6formatE
FNDA:502,_ZNSt10filesystem7__cxx114pathC2IA7_cS1_EERKT_NS1_6formatE
FN:218,_ZNSt10filesystem7__cxx114pathD2Ev
FNDA:633272,_ZNSt10filesystem7__cxx114pathD2Ev
FN:403,_ZNSt10filesystem7__cxx11lsIcSt11char_traitsIcEEERSt13basic_ostreamIT_T0_ES8_RKNS0_4pathE
FNDA:62750,_ZNSt10filesystem7__cxx11lsIcSt11char_traitsIcEEERSt13basic_ostreamIT_T0_ES8_RKNS0_4pathE
FN:1136,_ZNKSt10filesystem7__cxx114path8filenameEv
FNDA:250,_ZNKSt10filesystem7__cxx114path8filenameEv
FN:1163,_ZNKSt10filesystem7__cxx114path9extensionEv
FNDA:64758,_ZNKSt10filesystem7__cxx114path9extensionEv
DA:125,65260
DA:131,65260
DA:173,1506
DA:175,439500
DA:177,63754
DA:181,63754
DA:182,127508
DA:183,127508
DA:185,63252
DA:186,126504
DA:187,63252
DA:191,64758
DA:192,64758
DA:193,64758
DA:194,64758
DA:191,502
DA:192,502
DA:193,502
DA:194,502
DA:218,1899820
DA:304,63754
DA:316,224
DA:376,250
DA:403,62750
DA:405,125500
DA:406,62750
DA:439,64758
DA:440,64758
DA:495,65260
DA:496,65260
DA:552,1500
DA:566,63754
DA:569,1266540
DA:571,1500
DA:572,1500
DA:866,250
DA:867,250
DA:1012,63000
DA:1015,126000
DA:1021,500
DA:1136,250
DA:1138,250
DA:1139,0
DA:1140,250
DA:1141,0
DA:1142,250
DA:1144,250
DA:1145,0
DA:1146,1000
DA:1147,250
DA:1148,250
DA:1150,0
DA:1163,64758
DA:1165,64758
DA:1166,64758
DA:1167,126504
DA:1168,64758
DA:1204,250
DA:1206,250
DA:1207,250
DA:1208,250
DA:1229,250
DA:1231,250
DA:1232,250
DA:1234,250
DA:1235,250
DA:1240,250
DA:1242,250
DA:1246,250
DA:1248,250
DA:1249,250
DA:1251,250
DA:1252,250
end_of_record
SF:/usr/include/c++/9/ostream
DA:108,1828
DA:113,1828
DA:170,62750
DA:171,62750
DA:517,1355900
DA:518,1355900
DA:565,6
DA:568,6
DA:570,6
DA:571,6
end_of_record
SF:/home/alanjo/ubpf/code_gen_tests/test_helpers.h
FN:14,_ZL12gather_bytesmmmmm
FNDA:4,_ZL12gather_bytesmmmmm
FN:21,_ZL7memfrobmmmmm
FNDA:4,_ZL7memfrobmmmmm
FN:35,_ZL5no_opmmmmm
FNDA:2,_ZL5no_opmmmmm
FN:47,_ZL5sqrtimmmmm
FNDA:0,_ZL5sqrtimmmmm
FN:58,_ZL10strcmp_extmmmmm
FNDA:4,_ZL10strcmp_extmmmmm
FN:67,_ZL6unwindmmmmm
FNDA:4,_ZL6unwindmmmmm
DA:14,4
DA:16,4
DA:17,4
DA:21,4
DA:23,4
DA:24,4
DA:25,4
DA:27,4
DA:28,20
DA:29,16
DA:31,4
DA:35,2
DA:37,2
DA:38,2
DA:39,2
DA:40,2
DA:41,2
DA:43,2
DA:47,0
DA:49,0
DA:50,0
DA:51,0
DA:52,0
DA:54,0
DA:58,4
DA:60,4
DA:61,4
DA:62,4
DA:63,4
DA:67,4
DA:69,4
DA:70,4
DA:71,4
DA:72,4
DA:73,4
end_of_record
SF:/usr/include/c++/9/ext/atomicity.h
DA:48,4016
DA:49,4016
DA:52,1506
DA:53,1506
DA:65,0
DA:67,0
DA:68,0
DA:69,0
DA:73,0
DA:74,0
DA:78,4016
DA:81,4016
DA:82,4016
DA:84,0
DA:92,1506
DA:95,1506
DA:96,1506
DA:98,0
end_of_record
SF:/usr/include/c++/9/bits/stl_iterator_base_funcs.h
DA:98,0
DA:104,0
DA:138,0
DA:141,0
end_of_record
SF:/usr/include/c++/9/bits/stl_set.h
DA:167,502
DA:281,502
DA:509,62750
DA:511,62750
DA:513,62750
DA:748,62750
DA:749,62750
end_of_record
SF:/home/alanjo/ubpf/build/_deps/googletest-src/googletest/include/gtest/internal/gtest-internal.h
FN:518,_ZN7testing8internal16SuiteApiResolverI9ubpf_testE19GetSetUpCaseOrSuiteEPKci
FNDA:62750,_ZN7testing8internal16SuiteApiResolverI9ubpf_testE19GetSetUpCaseOrSuiteEPKci
FN:539,_ZN7testing8internal16SuiteApiResolverI9ubpf_testE22GetTearDownCaseOrSuiteEPKci
FNDA:62750,_ZN7testing8internal16SuiteApiResolverI9ubpf_testE22GetTearDownCaseOrSuiteEPKci
DA:431,502
DA:457,62750
DA:489,193270
DA:490,1004
DA:491,1004
DA:503,125500
DA:505,125500
DA:518,62750
DA:522,62750
DA:524,62750
DA:526,62750
DA:529,0
DA:531,62750
DA:539,62750
DA:543,62750
DA:545,62750
DA:547,62750
DA:550,0
DA:552,62750
DA:842,62750
end_of_record
SF:/home/alanjo/ubpf/code_gen_tests/code_gen_tests.cc
FN:18,_Z15parse_test_fileRKNSt10filesystem7__cxx114pathE
FNDA:224,_Z15parse_test_fileRKNSt10filesystem7__cxx114pathE
FN:116,_Z15prepare_ubpf_vmSt6vectorI9ebpf_instSaIS0_EE
FNDA:210,_Z15prepare_ubpf_vmSt6vectorI9ebpf_instSaIS0_EE
FN:138,_Z17run_ubpf_jit_testRKNSt10filesystem7__cxx114pathE
FNDA:125,_Z17run_ubpf_jit_testRKNSt10filesystem7__cxx114pathE
FN:185,_Z23run_ubpf_interpret_testRKNSt10filesystem7__cxx114pathE
FNDA:125,_Z23run_ubpf_interpret_testRKNSt10filesystem7__cxx114pathE
FN:233,_ZN18ubpf_test_jit_Test8TestBodyEv
FNDA:125,_ZN18ubpf_test_jit_Test8TestBodyEv
FN:233,_ZN18ubpf_test_jit_Test13AddToRegistryEv
FNDA:251,_ZN18ubpf_test_jit_Test13AddToRegistryEv
FN:238,_ZN24ubpf_test_interpret_Test8TestBodyEv
FNDA:125,_ZN24ubpf_test_interpret_Test8TestBodyEv
FN:238,_ZN24ubpf_test_interpret_Test13AddToRegistryEv
FNDA:251,_ZN24ubpf_test_interpret_Test13AddToRegistryEv
FN:243,_Z14get_test_filesB5cxx11v
FNDA:502,_Z14get_test_filesB5cxx11v
FN:256,_ZL43gtest_ubpf_testsubpf_test_EvalGenerateName_RKN7testing13TestParamInfoINSt10filesystem7__cxx114pathEEE
FNDA:62750,_ZL43gtest_ubpf_testsubpf_test_EvalGenerateName_RKN7testing13TestParamInfoINSt10filesystem7__cxx114pathEEE
FN:256,_ZL40gtest_ubpf_testsubpf_test_EvalGenerator_v
FNDA:502,_ZL40gtest_ubpf_testsubpf_test_EvalGenerator_v
DA:18,224
DA:20,224
DA:27,224
DA:29,448
DA:30,224
DA:32,448
DA:33,224
DA:34,448
DA:35,3518
DA:37,3294
DA:39,540
DA:41,224
DA:42,224
DA:44,316
DA:46,210
DA:47,210
DA:49,106
DA:51,62
DA:52,62
DA:54,44
DA:56,14
DA:57,14
DA:59,30
DA:64,30
DA:66,16
DA:67,16
DA:69,14
DA:71,8
DA:72,8
DA:76,6
DA:77,6
DA:78,6
DA:81,2754
DA:83,274
DA:86,2480
DA:88,1822
DA:89,1822
DA:91,256
DA:93,1822
DA:95,210
DA:96,3728
DA:98,118
DA:99,290
DA:100,118
DA:101,330
DA:102,330
DA:106,224
DA:108,230
DA:110,224
DA:111,448
DA:112,448
DA:116,210
DA:118,210
DA:119,210
DA:120,0
DA:122,210
DA:123,1470
DA:125,1260
DA:126,0
DA:129,210
DA:130,0
DA:132,210
DA:133,0
DA:135,210
DA:138,125
DA:140,282
DA:142,26
DA:145,217
DA:146,112
DA:148,27
DA:152,105
DA:153,105
DA:154,105
DA:155,0
DA:157,105
DA:158,105
DA:159,0
DA:161,210
DA:163,105
DA:165,62
DA:166,370
DA:167,370
DA:169,339
DA:173,105
DA:175,105
DA:177,105
DA:178,0
DA:179,0
DA:182,105
DA:185,125
DA:187,282
DA:189,26
DA:192,217
DA:193,112
DA:195,27
DA:199,105
DA:200,105
DA:201,0
DA:203,210
DA:205,105
DA:207,62
DA:208,370
DA:209,370
DA:211,339
DA:215,105
DA:217,105
DA:218,105
DA:219,0
DA:221,105
DA:222,0
DA:223,0
DA:226,105
DA:229,500
DA:233,125
DA:235,125
DA:236,125
DA:233,1757
DA:233,125
DA:238,125
DA:240,125
DA:241,125
DA:238,1757
DA:238,125
DA:243,502
DA:245,502
DA:246,131022
DA:248,129516
DA:250,62750
DA:253,502
DA:256,62750
DA:256,502
end_of_record
SF:/usr/include/c++/9/ext/type_traits.h
DA:152,0
end_of_record
SF:/usr/include/c++/9/iomanip
DA:470,62750
DA:475,62750
end_of_record
SF:/usr/include/c++/9/sstream
DA:677,62750
DA:678,62750
DA:831,62750
DA:832,62750
end_of_record
SF:/usr/include/c++/9/bits/stl_bvector.h
FN:537,_ZNSt13_Bvector_baseISaIbEE13_M_deallocateEv
FNDA:0,_ZNSt13_Bvector_baseISaIbEE13_M_deallocateEv
DA:77,0
DA:86,0
DA:87,0
DA:148,0
DA:152,0
DA:154,0
DA:156,0
DA:157,0
DA:186,0
DA:187,0
DA:226,0
DA:315,0
DA:316,0
DA:318,0
DA:319,0
DA:326,0
DA:327,0
DA:330,0
DA:332,0
DA:333,0
DA:465,0
DA:467,0
DA:468,0
DA:469,0
DA:472,0
DA:490,0
DA:492,0
DA:493,0
DA:526,0
DA:527,0
DA:537,0
DA:539,0
DA:541,0
DA:542,0
DA:543,0
DA:545,0
DA:547,0
DA:714,0
DA:815,0
DA:816,0
DA:823,0
DA:824,0
end_of_record
TN:
SF:/usr/include/c++/9/ext/type_traits.h
DA:152,1141650
end_of_record
SF:/usr/include/c++/9/sstream
end_of_record
SF:/usr/include/c++/9/bits/enable_special_members.h
DA:64,1754
end_of_record
SF:/usr/include/c++/9/array
DA:55,42
DA:127,42
DA:135,42
DA:185,42
DA:186,14
DA:235,42
end_of_record
SF:/usr/include/c++/9/bits/stl_iterator_base_funcs.h
DA:98,1142660
DA:104,1142660
DA:138,1142660
DA:141,1142660
end_of_record
SF:/usr/include/c++/9/bits/locale_facets.h
FN:872,_ZNKSt5ctypeIcE5widenEc
FNDA:2046,_ZNKSt5ctypeIcE5widenEc
FN:1084,_ZNKSt5ctypeIcE8do_widenEc
FNDA:0,_ZNKSt5ctypeIcE8do_widenEc
DA:872,2046
DA:874,2046
DA:875,2046
DA:876,0
DA:877,0
DA:1084,0
DA:1085,0
end_of_record
SF:/usr/include/c++/9/bits/ios_base.h
DA:165,8652
DA:166,8652
end_of_record
SF:/usr/include/c++/9/bits/hashtable.h
FN:1004,_ZNSt10_HashtableINSt7__cxx1112basic_stringIcSt11char_traitsIcESaIcEEESt4pairIKS5_iESaIS8_ENSt8__detail10_Select1stESt8equal_toIS5_ESt4hashIS5_ENSA_18_Mod_range_hashingENSA_20_Default_ranged_hashENSA_20_Prime_rehash_policyENSA_17_Hashtable_traitsILb1ELb0ELb1EEEEC2IPKS8_EET_SP_mRKSF_RKSG_RKSH_RKSD_RKSB_RKS9_
FNDA:753,_ZNSt10_HashtableINSt7__cxx1112basic_stringIcSt11char_traitsIcESaIcEEESt4pairIKS5_iESaIS8_ENSt8__detail10_Select1stESt8equal_toIS5_ESt4hashIS5_ENSA_18_Mod_range_hashingENSA_20_Default_ranged_hashENSA_20_Prime_rehash_policyENSA_17_Hashtable_traitsILb1ELb0ELb1EEEEC2IPKS8_EET_SP_mRKSF_RKSG_RKSH_RKSD_RKSB_RKS9_
FN:1004,_ZNSt10_HashtableINSt7__cxx1112basic_stringIcSt11char_traitsIcESaIcEEESt4pairIKS5_St8functionIFSt7variantIJ9ebpf_instSt5arrayISA_Lm2EEEERS7_RKSt6vectorIS5_SaIS5_EEEEESaISM_ENSt8__detail10_Select1stESt8equal_toIS5_ESt4hashIS5_ENSO_18_Mod_range_hashingENSO_20_Default_ranged_hashENSO_20_Prime_rehash_policyENSO_17_Hashtable_traitsILb1ELb0ELb1EEEEC2IPKSM_EET_S13_mRKST_RKSU_RKSV_RKSR_RKSP_RKSN_
FNDA:251,_ZNSt10_HashtableINSt7__cxx1112basic_stringIcSt11char_traitsIcESaIcEEESt4pairIKS5_St8functionIFSt7variantIJ9ebpf_instSt5arrayISA_Lm2EEEERS7_RKSt6vectorIS5_SaIS5_EEEEESaISM_ENSt8__detail10_Select1stESt8equal_toIS5_ESt4hashIS5_ENSO_18_Mod_range_hashingENSO_20_Default_ranged_hashENSO_20_Prime_rehash_policyENSO_17_Hashtable_traitsILb1ELb0ELb1EEEEC2IPKSM_EET_S13_mRKST_RKSU_RKSV_RKSR_RKSP_RKSN_
FN:1383,_ZNSt10_HashtableINSt7__cxx1112basic_stringIcSt11char_traitsIcESaIcEEESt4pairIKS5_iESaIS8_ENSt8__detail10_Select1stESt8equal_toIS5_ESt4hashIS5_ENSA_18_Mod_range_hashingENSA_20_Default_ranged_hashENSA_20_Prime_rehash_policyENSA_17_Hashtable_traitsILb1ELb0ELb1EEEED2Ev
FNDA:753,_ZNSt10_HashtableINSt7__cxx1112basic_stringIcSt11char_traitsIcESaIcEEESt4pairIKS5_iESaIS8_ENSt8__detail10_Select1stESt8equal_toIS5_ESt4hashIS5_ENSA_18_Mod_range_hashingENSA_20_Default_ranged_hashENSA_20_Prime_rehash_policyENSA_17_Hashtable_traitsILb1ELb0ELb1EEEED2Ev
FN:1383,_ZNSt10_HashtableINSt7__cxx1112basic_stringIcSt11char_traitsIcESaIcEEESt4pairIKS5_St8functionIFSt7variantIJ9ebpf_instSt5arrayISA_Lm2EEEERS7_RKSt6vectorIS5_SaIS5_EEEEESaISM_ENSt8__detail10_Select1stESt8equal_toIS5_ESt4hashIS5_ENSO_18_Mod_range_hashingENSO_20_Default_ranged_hashENSO_20_Prime_rehash_policyENSO_17_Hashtable_traitsILb1ELb0ELb1EEEED2Ev
FNDA:251,_ZNSt10_HashtableINSt7__cxx1112basic_stringIcSt11char_traitsIcESaIcEEESt4pairIKS5_St8functionIFSt7variantIJ9ebpf_instSt5arrayISA_Lm2EEEERS7_RKSt6vectorIS5_SaIS5_EEEEESaISM_ENSt8__detail10_Select1stESt8equal_toIS5_ESt4hashIS5_ENSO_18_Mod_range_hashingENSO_20_Default_ranged_hashENSO_20_Prime_rehash_policyENSO_17_Hashtable_traitsILb1ELb0ELb1EEEED2Ev
FN:1463,_ZNKSt10_HashtableINSt7__cxx1112basic_stringIcSt11char_traitsIcESaIcEEESt4pairIKS5_iESaIS8_ENSt8__detail10_Select1stESt8equal_toIS5_ESt4hashIS5_ENSA_18_Mod_range_hashingENSA_20_Default_ranged_hashENSA_20_Prime_rehash_policyENSA_17_Hashtable_traitsILb1ELb0ELb1EEEE4findERS7_
FNDA:3154,_ZNKSt10_HashtableINSt7__cxx1112basic_stringIcSt11char_traitsIcESaIcEEESt4pairIKS5_iESaIS8_ENSt8__detail10_Select1stESt8equal_toIS5_ESt4hashIS5_ENSA_18_Mod_range_hashingENSA_20_Default_ranged_hashENSA_20_Prime_rehash_policyENSA_17_Hashtable_traitsILb1ELb0ELb1EEEE4findERS7_
FN:1463,_ZNKSt10_HashtableINSt7__cxx1112basic_stringIcSt11char_traitsIcESaIcEEESt4pairIKS5_St8functionIFSt7variantIJ9ebpf_instSt5arrayISA_Lm2EEEERS7_RKSt6vectorIS5_SaIS5_EEEEESaISM_ENSt8__detail10_Select1stESt8equal_toIS5_ESt4hashIS5_ENSO_18_Mod_range_hashingENSO_20_Default_ranged_hashENSO_20_Prime_rehash_policyENSO_17_Hashtable_traitsILb1ELb0ELb1EEEE4findESE_
FNDA:1754,_ZNKSt10_HashtableINSt7__cxx1112basic_stringIcSt11char_traitsIcESaIcEEESt4pairIKS5_St8functionIFSt7variantIJ9ebpf_instSt5arrayISA_Lm2EEEERS7_RKSt6vectorIS5_SaIS5_EEEEESaISM_ENSt8__detail10_Select1stESt8equal_toIS5_ESt4hashIS5_ENSO_18_Mod_range_hashingENSO_20_Default_ranged_hashENSO_20_Prime_rehash_policyENSO_17_Hashtable_traitsILb1ELb0ELb1EEEE4findESE_
FN:1567,_ZNKSt10_HashtableINSt7__cxx1112basic_stringIcSt11char_traitsIcESaIcEEESt4pairIKS5_St8functionIFSt7variantIJ9ebpf_instSt5arrayISA_Lm2EEEERS7_RKSt6vectorIS5_SaIS5_EEEEESaISM_ENSt8__detail10_Select1stESt8equal_toIS5_ESt4hashIS5_ENSO_18_Mod_range_hashingENSO_20_Default_ranged_hashENSO_20_Prime_rehash_policyENSO_17_Hashtable_traitsILb1ELb0ELb1EEEE19_M_find_before_nodeEmSE_m
FNDA:16563,_ZNKSt10_HashtableINSt7__cxx1112basic_stringIcSt11char_traitsIcESaIcEEESt4pairIKS5_St8functionIFSt7variantIJ9ebpf_instSt5arrayISA_Lm2EEEERS7_RKSt6vectorIS5_SaIS5_EEEEESaISM_ENSt8__detail10_Select1stESt8equal_toIS5_ESt4hashIS5_ENSO_18_Mod_range_hashingENSO_20_Default_ranged_hashENSO_20_Prime_rehash_policyENSO_17_Hashtable_traitsILb1ELb0ELb1EEEE19_M_find_before_nodeEmSE_m
FN:1567,_ZNKSt10_HashtableINSt7__cxx1112basic_stringIcSt11char_traitsIcESaIcEEESt4pairIKS5_iESaIS8_ENSt8__detail10_Select1stESt8equal_toIS5_ESt4hashIS5_ENSA_18_Mod_range_hashingENSA_20_Default_ranged_hashENSA_20_Prime_rehash_policyENSA_17_Hashtable_traitsILb1ELb0ELb1EEEE19_M_find_before_nodeEmRS7_m
FNDA:12441,_ZNKSt10_HashtableINSt7__cxx1112basic_stringIcSt11char_traitsIcESaIcEEESt4pairIKS5_iESaIS8_ENSt8__detail10_Select1stESt8equal_toIS5_ESt4hashIS5_ENSA_18_Mod_range_hashingENSA_20_Default_ranged_hashENSA_20_Prime_rehash_policyENSA_17_Hashtable_traitsILb1ELb0ELb1EEEE19_M_find_before_nodeEmRS7_m
FN:1595,_ZNSt10_HashtableINSt7__cxx1112basic_stringIcSt11char_traitsIcESaIcEEESt4pairIKS5_iESaIS8_ENSt8__detail10_Select1stESt8equal_toIS5_ESt4hashIS5_ENSA_18_Mod_range_hashingENSA_20_Default_ranged_hashENSA_20_Prime_rehash_policyENSA_17_Hashtable_traitsILb1ELb0ELb1EEEE22_M_insert_bucket_beginEmPNSA_10_Hash_nodeIS8_Lb1EEE
FNDA:9287,_ZNSt10_HashtableINSt7__cxx1112basic_stringIcSt11char_traitsIcESaIcEEESt4pairIKS5_iESaIS8_ENSt8__detail10_Select1stESt8equal_toIS5_ESt4hashIS5_ENSA_18_Mod_range_hashingENSA_20_Default_ranged_hashENSA_20_Prime_rehash_policyENSA_17_Hashtable_traitsILb1ELb0ELb1EEEE22_M_insert_bucket_beginEmPNSA_10_Hash_nodeIS8_Lb1EEE
FN:1595,_ZNSt10_HashtableINSt7__cxx1112basic_stringIcSt11char_traitsIcESaIcEEESt4pairIKS5_St8functionIFSt7variantIJ9ebpf_instSt5arrayISA_Lm2EEEERS7_RKSt6vectorIS5_SaIS5_EEEEESaISM_ENSt8__detail10_Select1stESt8equal_toIS5_ESt4hashIS5_ENSO_18_Mod_range_hashingENSO_20_Default_ranged_hashENSO_20_Prime_rehash_policyENSO_17_Hashtable_traitsILb1ELb0ELb1EEEE22_M_insert_bucket_beginEmPNSO_10_Hash_nodeISM_Lb1EEE
FNDA:14809,_ZNSt10_HashtableINSt7__cxx1112basic_stringIcSt11char_traitsIcESaIcEEESt4pairIKS5_St8functionIFSt7variantIJ9ebpf_instSt5arrayISA_Lm2EEEERS7_RKSt6vectorIS5_SaIS5_EEEEESaISM_ENSt8__detail10_Select1stESt8equal_toIS5_ESt4hashIS5_ENSO_18_Mod_range_hashingENSO_20_Default_ranged_hashENSO_20_Prime_rehash_policyENSO_17_Hashtable_traitsILb1ELb0ELb1EEEE22_M_insert_bucket_beginEmPNSO_10_Hash_nodeISM_Lb1EEE
FN:1733,_ZNSt10_HashtableINSt7__cxx1112basic_stringIcSt11char_traitsIcESaIcEEESt4pairIKS5_iESaIS8_ENSt8__detail10_Select1stESt8equal_toIS5_ESt4hashIS5_ENSA_18_Mod_range_hashingENSA_20_Default_ranged_hashENSA_20_Prime_rehash_policyENSA_17_Hashtable_traitsILb1ELb0ELb1EEEE21_M_insert_unique_nodeEmmPNSA_10_Hash_nodeIS8_Lb1EEEm
FNDA:9287,_ZNSt10_HashtableINSt7__cxx1112basic_stringIcSt11char_traitsIcESaIcEEESt4pairIKS5_iESaIS8_ENSt8__detail10_Select1stESt8equal_toIS5_ESt4hashIS5_ENSA_18_Mod_range_hashingENSA_20_Default_ranged_hashENSA_20_Prime_rehash_policyENSA_17_Hashtable_traitsILb1ELb0ELb1EEEE21_M_insert_unique_nodeEmmPNSA_10_Hash_nodeIS8_Lb1EEEm
FN:1733,_ZNSt10_HashtableINSt7__cxx1112basic_stringIcSt11char_traitsIcESaIcEEESt4pairIKS5_St8functionIFSt7variantIJ9ebpf_instSt5arrayISA_Lm2EEEERS7_RKSt6vectorIS5_SaIS5_EEEEESaISM_ENSt8__detail10_Select1stESt8equal_toIS5_ESt4hashIS5_ENSO_18_Mod_range_hashingENSO_20_Default_ranged_hashENSO_20_Prime_rehash_policyENSO_17_Hashtable_traitsILb1ELb0ELb1EEEE21_M_insert_unique_nodeEmmPNSO_10_Hash_nodeISM_Lb1EEEm
FNDA:14809,_ZNSt10_HashtableINSt7__cxx1112basic_stringIcSt11char_traitsIcESaIcEEESt4pairIKS5_St8functionIFSt7variantIJ9ebpf_instSt5arrayISA_Lm2EEEERS7_RKSt6vectorIS5_SaIS5_EEEEESaISM_ENSt8__detail10_Select1stESt8equal_toIS5_ESt4hashIS5_ENSO_18_Mod_range_hashingENSO_20_Default_ranged_hashENSO_20_Prime_rehash_policyENSO_17_Hashtable_traitsILb1ELb0ELb1EEEE21_M_insert_unique_nodeEmmPNSO_10_Hash_nodeISM_Lb1EEEm
FN:1838,_ZNSt10_HashtableINSt7__cxx1112basic_stringIcSt11char_traitsIcESaIcEEESt4pairIKS5_St8functionIFSt7variantIJ9ebpf_instSt5arrayISA_Lm2EEEERS7_RKSt6vectorIS5_SaIS5_EEEEESaISM_ENSt8__detail10_Select1stESt8equal_toIS5_ESt4hashIS5_ENSO_18_Mod_range_hashingENSO_20_Default_ranged_hashENSO_20_Prime_rehash_policyENSO_17_Hashtable_traitsILb1ELb0ELb1EEEE9_M_insertIRKSM_NSO_10_AllocNodeISaINSO_10_Hash_nodeISM_Lb1EEEEEEEES6_INSO_14_Node_iteratorISM_Lb0ELb1EEEbEOT_RKT0_St17integral_constantIbLb1EEm
FNDA:14809,_ZNSt10_HashtableINSt7__cxx1112basic_stringIcSt11char_traitsIcESaIcEEESt4pairIKS5_St8functionIFSt7variantIJ9ebpf_instSt5arrayISA_Lm2EEEERS7_RKSt6vectorIS5_SaIS5_EEEEESaISM_ENSt8__detail10_Select1stESt8equal_toIS5_ESt4hashIS5_ENSO_18_Mod_range_hashingENSO_20_Default_ranged_hashENSO_20_Prime_rehash_policyENSO_17_Hashtable_traitsILb1ELb0ELb1EEEE9_M_insertIRKSM_NSO_10_AllocNodeISaINSO_10_Hash_nodeISM_Lb1EEEEEEEES6_INSO_14_Node_iteratorISM_Lb0ELb1EEEbEOT_RKT0_St17integral_constantIbLb1EEm
FN:1838,_ZNSt10_HashtableINSt7__cxx1112basic_stringIcSt11char_traitsIcESaIcEEESt4pairIKS5_iESaIS8_ENSt8__detail10_Select1stESt8equal_toIS5_ESt4hashIS5_ENSA_18_Mod_range_hashingENSA_20_Default_ranged_hashENSA_20_Prime_rehash_policyENSA_17_Hashtable_traitsILb1ELb0ELb1EEEE9_M_insertIRKS8_NSA_10_AllocNodeISaINSA_10_Hash_nodeIS8_Lb1EEEEEEEES6_INSA_14_Node_iteratorIS8_Lb0ELb1EEEbEOT_RKT0_St17integral_constantIbLb1EEm
FNDA:9287,_ZNSt10_HashtableINSt7__cxx1112basic_stringIcSt11char_traitsIcESaIcEEESt4pairIKS5_iESaIS8_ENSt8__detail10_Select1stESt8equal_toIS5_ESt4hashIS5_ENSA_18_Mod_range_hashingENSA_20_Default_ranged_hashENSA_20_Prime_rehash_policyENSA_17_Hashtable_traitsILb1ELb0ELb1EEEE9_M_insertIRKS8_NSA_10_AllocNodeISaINSA_10_Hash_nodeIS8_Lb1EEEEEEEES6_INSA_14_Node_iteratorIS8_Lb0ELb1EEEbEOT_RKT0_St17integral_constantIbLb1EEm
FN:2059,_ZNSt10_HashtableINSt7__cxx1112basic_stringIcSt11char_traitsIcESaIcEEESt4pairIKS5_St8functionIFSt7variantIJ9ebpf_instSt5arrayISA_Lm2EEEERS7_RKSt6vectorIS5_SaIS5_EEEEESaISM_ENSt8__detail10_Select1stESt8equal_toIS5_ESt4hashIS5_ENSO_18_Mod_range_hashingENSO_20_Default_ranged_hashENSO_20_Prime_rehash_policyENSO_17_Hashtable_traitsILb1ELb0ELb1EEEE5clearEv
FNDA:251,_ZNSt10_HashtableINSt7__cxx1112basic_stringIcSt11char_traitsIcESaIcEEESt4pairIKS5_St8functionIFSt7variantIJ9ebpf_instSt5arrayISA_Lm2EEEERS7_RKSt6vectorIS5_SaIS5_EEEEESaISM_ENSt8__detail10_Select1stESt8equal_toIS5_ESt4hashIS5_ENSO_18_Mod_range_hashingENSO_20_Default_ranged_hashENSO_20_Prime_rehash_policyENSO_17_Hashtable_traitsILb1ELb0ELb1EEEE5clearEv
FN:2059,_ZNSt10_HashtableINSt7__cxx1112basic_stringIcSt11char_traitsIcESaIcEEESt4pairIKS5_iESaIS8_ENSt8__detail10_Select1stESt8equal_toIS5_ESt4hashIS5_ENSA_18_Mod_range_hashingENSA_20_Default_ranged_hashENSA_20_Prime_rehash_policyENSA_17_Hashtable_traitsILb1ELb0ELb1EEEE5clearEv
FNDA:753,_ZNSt10_HashtableINSt7__cxx1112basic_stringIcSt11char_traitsIcESaIcEEESt4pairIKS5_iESaIS8_ENSt8__detail10_Select1stESt8equal_toIS5_ESt4hashIS5_ENSA_18_Mod_range_hashingENSA_20_Default_ranged_hashENSA_20_Prime_rehash_policyENSA_17_Hashtable_traitsILb1ELb0ELb1EEEE5clearEv
FN:2096,_ZNSt10_HashtableINSt7__cxx1112basic_stringIcSt11char_traitsIcESaIcEEESt4pairIKS5_iESaIS8_ENSt8__detail10_Select1stESt8equal_toIS5_ESt4hashIS5_ENSA_18_Mod_range_hashingENSA_20_Default_ranged_hashENSA_20_Prime_rehash_policyENSA_17_Hashtable_traitsILb1ELb0ELb1EEEE9_M_rehashEmRKm
FNDA:0,_ZNSt10_HashtableINSt7__cxx1112basic_stringIcSt11char_traitsIcESaIcEEESt4pairIKS5_iESaIS8_ENSt8__detail10_Select1stESt8equal_toIS5_ESt4hashIS5_ENSA_18_Mod_range_hashingENSA_20_Default_ranged_hashENSA_20_Prime_rehash_policyENSA_17_Hashtable_traitsILb1ELb0ELb1EEEE9_M_rehashEmRKm
FN:2096,_ZNSt10_HashtableINSt7__cxx1112basic_stringIcSt11char_traitsIcESaIcEEESt4pairIKS5_St8functionIFSt7variantIJ9ebpf_instSt5arrayISA_Lm2EEEERS7_RKSt6vectorIS5_SaIS5_EEEEESaISM_ENSt8__detail10_Select1stESt8equal_toIS5_ESt4hashIS5_ENSO_18_Mod_range_hashingENSO_20_Default_ranged_hashENSO_20_Prime_rehash_policyENSO_17_Hashtable_traitsILb1ELb0ELb1EEEE9_M_rehashEmRKm
FNDA:0,_ZNSt10_HashtableINSt7__cxx1112basic_stringIcSt11char_traitsIcESaIcEEESt4pairIKS5_St8functionIFSt7variantIJ9ebpf_instSt5arrayISA_Lm2EEEERS7_RKSt6vectorIS5_SaIS5_EEEEESaISM_ENSt8__detail10_Select1stESt8equal_toIS5_ESt4hashIS5_ENSO_18_Mod_range_hashingENSO_20_Default_ranged_hashENSO_20_Prime_rehash_policyENSO_17_Hashtable_traitsILb1ELb0ELb1EEEE9_M_rehashEmRKm
FN:2119,_ZNSt10_HashtableINSt7__cxx1112basic_stringIcSt11char_traitsIcESaIcEEESt4pairIKS5_St8functionIFSt7variantIJ9ebpf_instSt5arrayISA_Lm2EEEERS7_RKSt6vectorIS5_SaIS5_EEEEESaISM_ENSt8__detail10_Select1stESt8equal_toIS5_ESt4hashIS5_ENSO_18_Mod_range_hashingENSO_20_Default_ranged_hashENSO_20_Prime_rehash_policyENSO_17_Hashtable_traitsILb1ELb0ELb1EEEE13_M_rehash_auxEmSt17integral_constantIbLb1EE
FNDA:0,_ZNSt10_HashtableINSt7__cxx1112basic_stringIcSt11char_traitsIcESaIcEEESt4pairIKS5_St8functionIFSt7variantIJ9ebpf_instSt5arrayISA_Lm2EEEERS7_RKSt6vectorIS5_SaIS5_EEEEESaISM_ENSt8__detail10_Select1stESt8equal_toIS5_ESt4hashIS5_ENSO_18_Mod_range_hashingENSO_20_Default_ranged_hashENSO_20_Prime_rehash_policyENSO_17_Hashtable_traitsILb1ELb0ELb1EEEE13_M_rehash_auxEmSt17integral_constantIbLb1EE
FN:2119,_ZNSt10_HashtableINSt7__cxx1112basic_stringIcSt11char_traitsIcESaIcEEESt4pairIKS5_iESaIS8_ENSt8__detail10_Select1stESt8equal_toIS5_ESt4hashIS5_ENSA_18_Mod_range_hashingENSA_20_Default_ranged_hashENSA_20_Prime_rehash_policyENSA_17_Hashtable_traitsILb1ELb0ELb1EEEE13_M_rehash_auxEmSt17integral_constantIbLb1EE
FNDA:0,_ZNSt10_HashtableINSt7__cxx1112basic_stringIcSt11char_traitsIcESaIcEEESt4pairIKS5_iESaIS8_ENSt8__detail10_Select1stESt8equal_toIS5_ESt4hashIS5_ENSA_18_Mod_range_hashingENSA_20_Default_ranged_hashENSA_20_Prime_rehash_policyENSA_17_Hashtable_traitsILb1ELb0ELb1EEEE13_M_rehash_auxEmSt17integral_constantIbLb1EE
DA:342,1004
DA:343,1004
DA:353,1004
DA:355,1004
DA:357,0
DA:358,0
DA:361,1004
DA:365,1004
DA:367,1004
DA:370,1004
DA:374,1004
DA:375,0
DA:383,1004
DA:405,1004
DA:409,1004
DA:548,4768
DA:549,4768
DA:671,27431
DA:672,27431
DA:675,29004
DA:676,0
DA:684,29004
DA:687,29004
DA:688,29004
DA:689,4908
DA:1004,251
DA:1011,251
DA:1013,251
DA:1014,753
DA:1016,251
DA:1019,251
DA:1021,251
DA:1022,251
DA:1025,15060
DA:1026,14809
DA:1027,251
DA:1004,753
DA:1011,753
DA:1013,753
DA:1014,2259
DA:1016,753
DA:1019,753
DA:1021,753
DA:1022,753
DA:1025,10040
DA:1026,9287
DA:1027,753
DA:1383,251
DA:1387,251
DA:1388,251
DA:1389,251
DA:1383,753
DA:1387,753
DA:1388,753
DA:1389,753
DA:1463,1754
DA:1468,1754
DA:1469,1754
DA:1470,1754
DA:1471,1754
DA:1463,3154
DA:1468,3154
DA:1469,3154
DA:1470,3154
DA:1471,3154
DA:1567,16563
DA:1573,16563
DA:1574,16563
DA:1577,7276
DA:1580,11611
DA:1581,1754
DA:1583,9857
DA:1567,12441
DA:1573,12441
DA:1574,12441
DA:1577,5915
DA:1580,7174
DA:1581,3154
DA:1583,4020
DA:1595,14809
DA:1599,14809
DA:1603,5522
DA:1604,5522
DA:1611,9287
DA:1612,9287
DA:1613,9287
DA:1616,9036
DA:1617,9287
DA:1619,14809
DA:1595,9287
DA:1599,9287
DA:1603,2761
DA:1604,2761
DA:1611,6526
DA:1612,6526
DA:1613,6526
DA:1616,5773
DA:1617,6526
DA:1619,9287
DA:1733,14809
DA:1739,14809
DA:1740,14809
DA:1746,14809
DA:1748,0
DA:1749,0
DA:1752,14809
DA:1755,14809
DA:1756,14809
DA:1757,14809
DA:1759,0
DA:1761,0
DA:1762,0
DA:1733,9287
DA:1739,9287
DA:1740,9287
DA:1746,9287
DA:1748,0
DA:1749,0
DA:1752,9287
DA:1755,9287
DA:1756,9287
DA:1757,9287
DA:1759,0
DA:1761,0
DA:1762,0
DA:1838,14809
DA:1844,14809
DA:1845,14809
DA:1846,14809
DA:1848,14809
DA:1849,0
DA:1850,0
DA:1852,14809
DA:1853,14809
DA:1838,9287
DA:1844,9287
DA:1845,9287
DA:1846,9287
DA:1848,9287
DA:1849,0
DA:1850,0
DA:1852,9287
DA:1853,9287
DA:2059,251
DA:2063,251
DA:2064,251
DA:2065,251
DA:2066,251
DA:2067,251
DA:2059,753
DA:2063,753
DA:2064,753
DA:2065,753
DA:2066,753
DA:2067,753
DA:2096,0
DA:2102,0
DA:2104,0
DA:2108,0
DA:2109,0
DA:2111,0
DA:2096,0
DA:2102,0
DA:2104,0
DA:2108,0
DA:2109,0
DA:2111,0
DA:2119,0
DA:2123,0
DA:2124,0
DA:2125,0
DA:2126,0
DA:2127,0
DA:2129,0
DA:2130,0
DA:2131,0
DA:2133,0
DA:2134,0
DA:2135,0
DA:2136,0
DA:2137,0
DA:2142,0
DA:2143,0
DA:2148,0
DA:2149,0
DA:2150,0
DA:2151,0
DA:2119,0
DA:2123,0
DA:2124,0
DA:2125,0
DA:2126,0
DA:2127,0
DA:2129,0
DA:2130,0
DA:2131,0
DA:2133,0
DA:2134,0
DA:2135,0
DA:2136,0
DA:2137,0
DA:2142,0
DA:2143,0
DA:2148,0
DA:2149,0
DA:2150,0
DA:2151,0
end_of_record
SF:/usr/include/c++/9/variant
FN:1212,_ZNKSt18bad_variant_access4whatEv
FNDA:0,_ZNKSt18bad_variant_access4whatEv
FN:1224,_ZSt26__throw_bad_variant_accessPKc
FNDA:0,_ZSt26__throw_bad_variant_accessPKc
DA:202,1754
DA:203,1754
DA:209,1740
DA:249,1740
DA:250,1782
DA:256,42
DA:257,42
DA:263,1740
DA:265,1782
DA:266,1782
DA:322,1754
DA:323,1754
DA:327,14
DA:328,14
DA:438,1754
DA:440,1754
DA:517,1754
DA:561,1754
DA:637,1754
DA:682,1754
DA:701,1754
DA:702,1754
DA:1057,1754
DA:1061,1754
DA:1065,1754
DA:1070,1782
DA:1212,0
DA:1213,0
DA:1216,0
DA:1224,0
DA:1225,0
DA:1310,1754
DA:1313,1754
DA:1314,1040
DA:1340,1754
DA:1342,1754
DA:1503,3508
DA:1505,1754
DA:1592,1754
DA:1596,1754
DA:1597,0
DA:1598,1782
end_of_record
SF:/usr/include/c++/9/bits/basic_string.h
FN:480,_ZNSt7__cxx1112basic_stringIcSt11char_traitsIcESaIcEEC2ERKS4_mm
FNDA:2762,_ZNSt7__cxx1112basic_stringIcSt11char_traitsIcESaIcEEC2ERKS4_mm
FN:529,_ZNSt7__cxx1112basic_stringIcSt11char_traitsIcESaIcEEC2IS3_EEPKcRKS3_
FNDA:24096,_ZNSt7__cxx1112basic_stringIcSt11char_traitsIcESaIcEEC2IS3_EEPKcRKS3_
FN:736,_ZNSt7__cxx1112basic_stringIcSt11char_traitsIcESaIcEEaSEOS4_
FNDA:1862,_ZNSt7__cxx1112basic_stringIcSt11char_traitsIcESaIcEEaSEOS4_
FN:2838,_ZNKSt7__cxx1112basic_stringIcSt11char_traitsIcESaIcEE6substrEmm
FNDA:2762,_ZNKSt7__cxx1112basic_stringIcSt11char_traitsIcESaIcEE6substrEmm
FN:6088,_ZStplIcSt11char_traitsIcESaIcEENSt7__cxx1112basic_stringIT_T0_T1_EEOS8_RKS8_
FNDA:0,_ZStplIcSt11char_traitsIcESaIcEENSt7__cxx1112basic_stringIT_T0_T1_EEOS8_RKS8_
FN:6152,_ZSteqIcEN9__gnu_cxx11__enable_ifIXsrSt9__is_charIT_E7__valueEbE6__typeERKNSt7__cxx1112basic_stringIS3_St11char_traitsIS3_ESaIS3_EEESE_
FNDA:4908,_ZSteqIcEN9__gnu_cxx11__enable_ifIXsrSt9__is_charIT_E7__valueEbE6__typeERKNSt7__cxx1112basic_stringIS3_St11char_traitsIS3_ESaIS3_EEESE_
DA:154,13610
DA:160,24096
DA:161,24096
DA:163,32974
DA:164,34630
DA:182,886372
DA:183,638973
DA:186,1155010
DA:187,1155010
DA:190,5374
DA:194,60382
DA:197,32750
DA:204,514280
DA:207,514280
DA:214,884716
DA:215,638973
DA:218,1155010
DA:220,1155010
DA:221,7979
DA:222,6755
DA:225,514280
DA:226,514280
DA:233,246516
DA:235,256414
DA:236,773
DA:240,63730
DA:241,63730
DA:247,53984
DA:251,53984
DA:267,53984
DA:270,24096
DA:290,1761560
DA:291,1758040
DA:294,1983080
DA:295,1983080
DA:314,5524
DA:316,5524
DA:317,0
DA:333,2762
DA:335,2762
DA:350,1506380
DA:352,362872
DA:353,68927
DA:355,496379
DA:396,596088
DA:397,596088
DA:400,545563
DA:402,545563
DA:405,2082
DA:407,2082
DA:409,2082
DA:411,2082
DA:414,2082
DA:435,3086
DA:437,3086
DA:438,3086
DA:452,27126
DA:454,27126
DA:455,28782
DA:480,2762
DA:482,2762
DA:484,2762
DA:485,5524
DA:486,5524
DA:487,2762
DA:529,24096
DA:530,24096
DA:531,24096
DA:556,1656
DA:557,1656
DA:559,1656
DA:561,1656
DA:566,0
DA:567,0
DA:573,1656
DA:574,1656
DA:575,1656
DA:661,9898
DA:662,11550
DA:669,600
DA:700,946
DA:736,1862
DA:739,1862
DA:746,1862
DA:749,1862
DA:751,1862
DA:754,1862
DA:755,3724
DA:756,3724
DA:763,0
DA:765,0
DA:770,0
DA:771,0
DA:777,0
DA:778,0
DA:779,0
DA:780,0
DA:782,0
DA:783,0
DA:786,0
DA:790,1862
DA:791,1862
DA:934,20140
DA:940,276041
DA:945,1955950
DA:946,1955950
DA:997,250636
DA:999,250636
DA:1027,1862
DA:1028,1862
DA:1225,0
DA:1226,0
DA:1368,600
DA:1370,600
DA:2304,1294
DA:2305,1294
DA:2316,52870
DA:2317,7646
DA:2397,1294
DA:2400,1294
DA:2838,2762
DA:2840,2762
DA:3054,4392
DA:3055,10538
DA:3058,2944
DA:3059,1040
DA:3066,3030
DA:3067,7576
DA:3070,946
DA:3071,946
DA:6088,0
DA:6090,0
DA:6152,4908
DA:6154,4908
DA:6155,4908
DA:6156,4908
DA:6178,1654
DA:6180,700
DA:6216,14
DA:6218,14
DA:6516,1280
DA:6517,1280
DA:6526,14
DA:6527,14
DA:6737,29004
DA:6738,29004
end_of_record
SF:/usr/include/c++/9/bits/basic_string.tcc
FN:132,_ZNSt7__cxx1112basic_stringIcSt11char_traitsIcESaIcEE9_M_createERmm
FNDA:1694310,_ZNSt7__cxx1112basic_stringIcSt11char_traitsIcESaIcEE9_M_createERmm
FN:206,_ZNSt7__cxx1112basic_stringIcSt11char_traitsIcESaIcEE12_M_constructIPcEEvT_S7_St20forward_iterator_tag
FNDA:596088,_ZNSt7__cxx1112basic_stringIcSt11char_traitsIcESaIcEE12_M_constructIPcEEvT_S7_St20forward_iterator_tag
FN:206,_ZNSt7__cxx1112basic_stringIcSt11char_traitsIcESaIcEE12_M_constructIPKcEEvT_S8_St20forward_iterator_tag
FNDA:545563,_ZNSt7__cxx1112basic_stringIcSt11char_traitsIcESaIcEE12_M_constructIPKcEEvT_S8_St20forward_iterator_tag
FN:254,_ZNSt7__cxx1112basic_stringIcSt11char_traitsIcESaIcEE9_M_assignERKS4_
FNDA:4893,_ZNSt7__cxx1112basic_stringIcSt11char_traitsIcESaIcEE9_M_assignERKS4_
FN:310,_ZNSt7__cxx1112basic_stringIcSt11char_traitsIcESaIcEE9_M_mutateEmmPKcm
FNDA:245743,_ZNSt7__cxx1112basic_stringIcSt11char_traitsIcESaIcEE9_M_mutateEmmPKcm
FN:359,_ZNSt7__cxx1112basic_stringIcSt11char_traitsIcESaIcEE9_M_appendEPKcm
FNDA:0,_ZNSt7__cxx1112basic_stringIcSt11char_traitsIcESaIcEE9_M_appendEPKcm
FN:1188,_ZNKSt7__cxx1112basic_stringIcSt11char_traitsIcESaIcEE4findEPKcmm
FNDA:7934,_ZNKSt7__cxx1112basic_stringIcSt11char_traitsIcESaIcEE4findEPKcmm
FN:1224,_ZNKSt7__cxx1112basic_stringIcSt11char_traitsIcESaIcEE4findEcm
FNDA:2212,_ZNKSt7__cxx1112basic_stringIcSt11char_traitsIcESaIcEE4findEcm
FN:1418,_ZNKSt7__cxx1112basic_stringIcSt11char_traitsIcESaIcEE7compareEPKc
FNDA:3162,_ZNKSt7__cxx1112basic_stringIcSt11char_traitsIcESaIcEE7compareEPKc
DA:132,1694310
DA:137,1694310
DA:138,0
DA:143,1694310
DA:145,261637
DA:147,261637
DA:148,0
DA:153,1694310
DA:206,596088
DA:211,596088
DA:212,0
DA:215,596088
DA:217,596088
DA:219,399473
DA:220,399473
DA:225,596088
DA:232,596088
DA:233,596088
DA:206,545563
DA:211,545563
DA:212,0
DA:215,545563
DA:217,545563
DA:219,238727
DA:220,238727
DA:225,545563
DA:232,545563
DA:233,545563
DA:254,4893
DA:257,4893
DA:259,4893
DA:260,4893
DA:262,4893
DA:264,773
DA:265,773
DA:266,773
DA:267,773
DA:268,773
DA:271,4893
DA:272,8206
DA:274,4893
DA:276,4893
DA:310,245743
DA:314,245743
DA:316,245743
DA:317,245743
DA:319,245743
DA:320,113816
DA:321,245743
DA:322,245743
DA:323,245743
DA:324,245743
DA:325,0
DA:327,245743
DA:328,245743
DA:329,245743
DA:330,245743
DA:359,0
DA:362,0
DA:364,0
DA:366,0
DA:367,0
DA:370,0
DA:372,0
DA:373,0
DA:1188,7934
DA:1193,7934
DA:1195,7934
DA:1196,0
DA:1197,7934
DA:1200,7646
DA:1201,7646
DA:1202,7646
DA:1203,7646
DA:1204,7646
DA:1206,7944
DA:1209,7478
DA:1210,7478
DA:1215,2120
DA:1216,1822
DA:1217,298
DA:1224,2212
DA:1227,2212
DA:1228,2212
DA:1229,2212
DA:1231,2212
DA:1232,2212
DA:1233,2212
DA:1234,2212
DA:1235,1070
DA:1237,2212
DA:1418,3162
DA:1422,3162
DA:1423,3162
DA:1424,3162
DA:1425,3162
DA:1426,2156
DA:1427,2082
DA:1428,3162
end_of_record
SF:/usr/include/c++/9/bits/move.h
DA:47,7694
DA:74,105355
DA:99,36492
DA:138,572354
DA:139,570298
end_of_record
SF:/usr/include/c++/9/streambuf
end_of_record
SF:/usr/include/c++/9/bits/allocator.h
DA:137,5848
DA:140,59730
DA:141,52878
DA:150,2008
DA:152,46532
end_of_record
SF:/usr/include/c++/9/bits/stl_iterator.h
DA:803,7800
DA:804,4798
DA:816,4798
DA:864,4798
DA:865,4798
DA:868,4546
DA:986,3900
DA:989,3900
end_of_record
SF:/usr/include/c++/9/initializer_list
end_of_record
SF:/usr/include/c++/9/bits/alloc_traits.h
DA:442,1703600
DA:443,1703600
DA:468,68912
DA:469,68912
DA:481,1656
DA:483,15741
DA:494,1656
DA:496,1656
DA:504,1963750
DA:505,1963750
DA:513,27126
DA:514,27126
DA:544,1862
DA:545,1862
DA:552,1862
DA:556,1862
end_of_record
SF:/usr/include/c++/9/bits/stl_uninitialized.h
DA:905,1656
DA:912,1656
DA:913,1656
DA:924,1740
DA:927,1740
DA:928,870
DA:929,646
DA:930,870
DA:949,9372
DA:950,3312
DA:958,1516
DA:964,6202
end_of_record
SF:/usr/include/c++/9/bits/stl_function.h
DA:355,4908
DA:356,4908
end_of_record
SF:/usr/include/c++/9/ext/aligned_buffer.h
DA:102,19103
DA:104,14195
DA:114,19103
DA:115,19103
end_of_record
SF:/usr/include/c++/9/iostream
end_of_record
SF:/usr/include/c++/9/bits/ptr_traits.h
DA:146,570298
DA:147,570298
DA:156,9287
end_of_record
SF:/usr/include/c++/9/bits/stl_algobase.h
DA:198,7800
DA:203,10850
DA:204,1476
DA:222,4904
DA:227,4904
DA:228,1738
DA:280,1516
end_of_record
SF:/usr/include/c++/9/ext/alloc_traits.h
DA:97,27126
DA:98,27126
end_of_record
SF:/usr/include/c++/9/bits/functional_hash.h
DA:195,29004
DA:197,29004
end_of_record
SF:/usr/include/c++/9/ext/string_conversions.h
FN:54,_ZN9__gnu_cxx6__stoaIyycJiEEET0_PFT_PKT1_PPS3_DpT2_EPKcS5_PmS9_
FNDA:224,_ZN9__gnu_cxx6__stoaIyycJiEEET0_PFT_PKT1_PPS3_DpT2_EPKcS5_PmS9_
FN:54,_ZN9__gnu_cxx6__stoaImmcJiEEET0_PFT_PKT1_PPS3_DpT2_EPKcS5_PmS9_
FNDA:1280,_ZN9__gnu_cxx6__stoaImmcJiEEET0_PFT_PKT1_PPS3_DpT2_EPKcS5_PmS9_
DA:54,224
DA:63,224
DA:64,224
DA:66,448
DA:80,224
DA:82,224
DA:83,0
DA:84,224
DA:85,224
DA:86,0
DA:88,224
DA:90,224
DA:91,0
DA:93,448
DA:54,1280
DA:63,1280
DA:64,1280
DA:66,2560
DA:80,1280
DA:82,1280
DA:83,0
DA:84,1280
DA:85,1280
DA:86,0
DA:88,1280
DA:90,1280
DA:91,0
DA:93,2560
end_of_record
SF:/usr/include/c++/9/bits/basic_ios.h
DA:117,6830
DA:118,6830
DA:125,1822
DA:126,1822
DA:137,8652
DA:201,8652
DA:202,8652
end_of_record
SF:/usr/include/c++/9/bits/stl_vector.h
FN:675,_ZNSt6vectorINSt7__cxx1112basic_stringIcSt11char_traitsIcESaIcEEESaIS5_EED2Ev
FNDA:2826,_ZNSt6vectorINSt7__cxx1112basic_stringIcSt11char_traitsIcESaIcEEESaIS5_EED2Ev
FN:1753,_ZNKSt6vectorI9ebpf_instSaIS0_EE12_M_check_lenEmPKc
FNDA:870,_ZNKSt6vectorI9ebpf_instSaIS0_EE12_M_check_lenEmPKc
FN:1753,_ZNKSt6vectorINSt7__cxx1112basic_stringIcSt11char_traitsIcESaIcEEESaIS5_EE12_M_check_lenEmPKc
FNDA:3030,_ZNKSt6vectorINSt7__cxx1112basic_stringIcSt11char_traitsIcESaIcEEESaIS5_EE12_M_check_lenEmPKc
DA:94,2046
DA:95,2046
DA:125,2826
DA:128,2046
DA:130,224
DA:273,3900
DA:274,5556
DA:277,7800
DA:278,7800
DA:285,2046
DA:330,2826
DA:332,5652
DA:333,2826
DA:334,2826
DA:347,6726
DA:350,3900
DA:351,7208
DA:450,1740
DA:453,16386
DA:462,3900
DA:466,6202
DA:484,2046
DA:675,2826
DA:677,5652
DA:678,2826
DA:680,2826
DA:808,3900
DA:809,3900
DA:826,8698
DA:827,3900
DA:915,240
DA:916,2460
DA:920,7800
DA:921,11700
DA:1058,1514
DA:1061,2594
DA:1140,4798
DA:1143,4798
DA:1753,870
DA:1755,870
DA:1756,0
DA:1758,870
DA:1759,870
DA:1753,3030
DA:1755,3030
DA:1756,0
DA:1758,3030
DA:1759,3030
DA:1773,7800
DA:1780,7800
DA:1781,7800
end_of_record
SF:/usr/include/c++/9/bits/stl_construct.h
DA:97,4284
DA:98,4284
DA:107,7110
DA:108,5040
DA:117,0
DA:127,0
DA:137,2826
DA:203,2826
DA:206,2826
end_of_record
SF:/usr/include/c++/9/bits/hashtable_policy.h
FN:2079,_ZNSt8__detail16_Hashtable_allocISaINS_10_Hash_nodeISt4pairIKNSt7__cxx1112basic_stringIcSt11char_traitsIcESaIcEEEiELb1EEEEE16_M_allocate_nodeIJRKSA_EEEPSB_DpOT_
FNDA:9287,_ZNSt8__detail16_Hashtable_allocISaINS_10_Hash_nodeISt4pairIKNSt7__cxx1112basic_stringIcSt11char_traitsIcESaIcEEEiELb1EEEEE16_M_allocate_nodeIJRKSA_EEEPSB_DpOT_
DA:70,1004
DA:72,1004
DA:76,1004
DA:77,1004
DA:92,24096
DA:94,29004
DA:161,24096
DA:162,24096
DA:166,24096
DA:167,24096
DA:218,10291
DA:229,9287
DA:236,19103
DA:237,19103
DA:244,0
DA:245,4908
DA:264,9287
DA:269,27431
DA:294,33772
DA:295,4908
DA:304,4768
DA:340,24096
DA:341,24096
DA:388,9676
DA:389,9676
DA:400,4908
DA:401,4908
DA:431,56435
DA:433,56435
DA:449,1004
DA:450,1004
DA:462,1004
DA:463,1004
DA:476,24096
DA:477,24096
DA:484,0
DA:485,0
DA:805,24096
DA:820,24096
DA:822,24096
DA:823,24096
DA:824,24096
DA:1093,1004
DA:1099,1004
DA:1100,1004
DA:1104,104224
DA:1108,43674
DA:1374,1004
DA:1377,1004
DA:1380,29004
DA:1384,29004
DA:1388,29004
DA:1390,29004
DA:1393,27431
DA:1396,27431
DA:1399,24096
DA:1400,24096
DA:1415,18785
DA:1418,24096
DA:1421,29004
DA:1427,56435
DA:1448,18785
DA:1450,4908
DA:1823,1004
DA:1825,1004
DA:1829,18785
DA:1834,18785
DA:1846,18785
DA:2017,1004
DA:2041,1004
DA:2042,1004
DA:2046,19578
DA:2047,9287
DA:2079,9287
DA:2081,9287
DA:2082,9287
DA:2085,9287
DA:2086,9287
DA:2089,9287
DA:2091,0
DA:2093,0
DA:2094,0
DA:2100,0
DA:2102,0
DA:2103,0
DA:2108,0
DA:2111,0
DA:2112,0
DA:2113,0
DA:2118,753
DA:2120,10040
DA:2122,9287
DA:2123,9287
DA:2124,9287
DA:2142,1004
DA:2146,1004
DA:2147,1004
DA:2148,1004
DA:2149,1004
end_of_record
SF:/usr/include/c++/9/bits/unordered_map.h
DA:356,4768
DA:357,4768
DA:925,4908
DA:926,4908
end_of_record
SF:/usr/include/c++/9/bits/char_traits.h
DA:231,32442
DA:299,1223940
DA:300,80404
DA:303,7422
DA:304,7422
DA:315,13988
DA:317,11868
DA:320,12982
DA:321,12982
DA:332,12982
DA:336,32442
DA:339,32442
DA:342,32442
DA:346,9690
DA:348,7478
DA:351,9690
DA:353,9690
DA:356,9690
DA:368,1439110
DA:370,1135590
DA:372,1436630
end_of_record
SF:/usr/include/c++/9/bits/stl_pair.h
FN:303,_ZNSt4pairIKNSt7__cxx1112basic_stringIcSt11char_traitsIcESaIcEEESt8functionIFSt7variantIJ9ebpf_instSt5arrayIS9_Lm2EEEERS6_RKSt6vectorIS5_SaIS5_EEEEEC2ERKSL_
FNDA:14809,_ZNSt4pairIKNSt7__cxx1112basic_stringIcSt11char_traitsIcESaIcEEESt8functionIFSt7variantIJ9ebpf_instSt5arrayIS9_Lm2EEEERS6_RKSt6vectorIS5_SaIS5_EEEEEC2ERKSL_
DA:303,24096
DA:341,24096
DA:342,24096
DA:524,0
DA:529,0
end_of_record
SF:/usr/include/c++/9/bits/exception.h
DA:63,0
end_of_record
SF:/usr/include/c++/9/tuple
DA:132,284
DA:133,284
DA:160,284
DA:195,284
DA:216,284
DA:218,284
DA:334,284
DA:348,284
DA:349,284
DA:968,284
DA:969,284
DA:1309,284
DA:1310,284
DA:1320,284
DA:1321,284
DA:1332,284
DA:1335,284
DA:1470,284
DA:1474,284
end_of_record
SF:/usr/include/c++/9/bits/vector.tcc
FN:109,_ZNSt6vectorI9ebpf_instSaIS0_EE12emplace_backIJRKS0_EEERS0_DpOT_
FNDA:28,_ZNSt6vectorI9ebpf_instSaIS0_EE12emplace_backIJRKS0_EEERS0_DpOT_
FN:109,_ZNSt6vectorI9ebpf_instSaIS0_EE12emplace_backIJRS0_EEES4_DpOT_
FNDA:1740,_ZNSt6vectorI9ebpf_instSaIS0_EE12emplace_backIJRS0_EEES4_DpOT_
FN:109,_ZNSt6vectorINSt7__cxx1112basic_stringIcSt11char_traitsIcESaIcEEESaIS5_EE12emplace_backIJRS5_EEES9_DpOT_
FNDA:3030,_ZNSt6vectorINSt7__cxx1112basic_stringIcSt11char_traitsIcESaIcEEESaIS5_EE12emplace_backIJRS5_EEES9_DpOT_
FN:426,_ZNSt6vectorI9ebpf_instSaIS0_EE17_M_realloc_insertIJRKS0_EEEvN9__gnu_cxx17__normal_iteratorIPS0_S2_EEDpOT_
FNDA:28,_ZNSt6vectorI9ebpf_instSaIS0_EE17_M_realloc_insertIJRKS0_EEEvN9__gnu_cxx17__normal_iteratorIPS0_S2_EEDpOT_
FN:426,_ZNSt6vectorI9ebpf_instSaIS0_EE17_M_realloc_insertIJRS0_EEEvN9__gnu_cxx17__normal_iteratorIPS0_S2_EEDpOT_
FNDA:842,_ZNSt6vectorI9ebpf_instSaIS0_EE17_M_realloc_insertIJRS0_EEEvN9__gnu_cxx17__normal_iteratorIPS0_S2_EEDpOT_
FN:426,_ZNSt6vectorINSt7__cxx1112basic_stringIcSt11char_traitsIcESaIcEEESaIS5_EE17_M_realloc_insertIJRS5_EEEvN9__gnu_cxx17__normal_iteratorIPS5_S7_EEDpOT_
FNDA:3030,_ZNSt6vectorINSt7__cxx1112basic_stringIcSt11char_traitsIcESaIcEEESaIS5_EE17_M_realloc_insertIJRS5_EEEvN9__gnu_cxx17__normal_iteratorIPS5_S7_EEDpOT_
DA:109,28
DA:112,28
DA:115,0
DA:117,0
DA:121,28
DA:123,28
DA:109,1740
DA:112,1740
DA:115,898
DA:117,898
DA:121,842
DA:123,1740
DA:109,3030
DA:112,3030
DA:115,0
DA:117,0
DA:121,3030
DA:123,3030
DA:426,28
DA:435,28
DA:437,28
DA:438,28
DA:439,28
DA:440,28
DA:441,28
DA:449,28
DA:450,28
DA:456,28
DA:461,28
DA:462,28
DA:464,28
DA:466,28
DA:467,28
DA:500,56
DA:501,28
DA:502,28
DA:503,28
DA:504,28
DA:505,28
DA:426,842
DA:435,842
DA:437,842
DA:438,842
DA:439,842
DA:440,842
DA:441,842
DA:449,842
DA:450,842
DA:456,842
DA:461,842
DA:462,842
DA:464,842
DA:466,842
DA:467,842
DA:500,1684
DA:501,842
DA:502,842
DA:503,842
DA:504,842
DA:505,842
DA:426,3030
DA:435,3030
DA:437,3030
DA:438,3030
DA:439,3030
DA:440,3030
DA:441,3030
DA:449,7716
DA:450,3030
DA:456,4686
DA:461,4686
DA:462,4686
DA:464,3030
DA:466,3030
DA:467,3030
DA:485,0
DA:487,0
DA:488,0
DA:491,0
DA:492,0
DA:493,0
DA:500,6060
DA:501,3030
DA:502,3030
DA:503,3030
DA:504,3030
DA:505,3030
end_of_record
SF:/usr/include/c++/9/ext/new_allocator.h
DA:80,7856
DA:83,59730
DA:89,44876
DA:102,1703600
DA:104,1703600
DA:105,0
DA:114,1694310
DA:119,68912
DA:128,68912
DA:132,3405710
DA:144,15741
DA:146,18771
DA:150,1656
DA:152,1656
end_of_record
SF:/usr/include/c++/9/string_view
FN:265,_ZNKSt17basic_string_viewIcSt11char_traitsIcEE6substrEmm
FNDA:3890,_ZNKSt17basic_string_viewIcSt11char_traitsIcEE6substrEmm
FN:273,_ZNKSt17basic_string_viewIcSt11char_traitsIcEE7compareES2_
FNDA:3798,_ZNKSt17basic_string_viewIcSt11char_traitsIcEE7compareES2_
FN:312,_ZNKSt17basic_string_viewIcSt11char_traitsIcEE11starts_withES2_
FNDA:2944,_ZNKSt17basic_string_viewIcSt11char_traitsIcEE11starts_withES2_
FN:320,_ZNKSt17basic_string_viewIcSt11char_traitsIcEE11starts_withEPKc
FNDA:2944,_ZNKSt17basic_string_viewIcSt11char_traitsIcEE11starts_withEPKc
FN:324,_ZNKSt17basic_string_viewIcSt11char_traitsIcEE9ends_withES2_
FNDA:946,_ZNKSt17basic_string_viewIcSt11char_traitsIcEE9ends_withES2_
FN:335,_ZNKSt17basic_string_viewIcSt11char_traitsIcEE9ends_withEPKc
FNDA:946,_ZNKSt17basic_string_viewIcSt11char_traitsIcEE9ends_withEPKc
DA:54,3890
DA:56,3890
DA:57,0
DA:59,3890
DA:123,3890
DA:124,3890
DA:125,3890
DA:129,15202
DA:130,3890
DA:173,11670
DA:188,7422
DA:211,4392
DA:218,3030
DA:221,3030
DA:265,3890
DA:267,3890
DA:268,3890
DA:269,3890
DA:273,3798
DA:275,3798
DA:276,3798
DA:277,3798
DA:278,4246
DA:279,3798
DA:283,946
DA:284,1892
DA:312,2944
DA:313,2944
DA:316,4392
DA:317,4392
DA:320,2944
DA:321,2944
DA:324,946
DA:326,946
DA:327,946
DA:331,3030
DA:332,3030
DA:335,946
DA:336,946
DA:444,448
DA:446,448
DA:447,448
DA:449,448
DA:451,448
DA:471,2944
DA:473,2944
end_of_record
SF:/usr/include/c++/9/bits/std_function.h
FN:196,_ZNSt14_Function_base13_Base_managerIPFSt7variantIJ9ebpf_instSt5arrayIS2_Lm2EEEERKNSt7__cxx1112basic_stringIcSt11char_traitsIcESaIcEEERKSt6vectorISB_SaISB_EEEE10_M_managerERSt9_Any_dataRKSM_St18_Manager_operation
FNDA:44427,_ZNSt14_Function_base13_Base_managerIPFSt7variantIJ9ebpf_instSt5arrayIS2_Lm2EEEERKNSt7__cxx1112basic_stringIcSt11char_traitsIcESaIcEEERKSt6vectorISB_SaISB_EEEE10_M_managerERSt9_Any_dataRKSM_St18_Manager_operation
FN:283,_ZNSt17_Function_handlerIFSt7variantIJ9ebpf_instSt5arrayIS1_Lm2EEEERKNSt7__cxx1112basic_stringIcSt11char_traitsIcESaIcEEERKSt6vectorISA_SaISA_EEEPSI_E9_M_invokeERKSt9_Any_dataSC_SH_
FNDA:1754,_ZNSt17_Function_handlerIFSt7variantIJ9ebpf_instSt5arrayIS1_Lm2EEEERKNSt7__cxx1112basic_stringIcSt11char_traitsIcESaIcEEERKSt6vectorISA_SaISA_EEEPSI_E9_M_invokeERKSt9_Any_dataSC_SH_
FN:653,_ZNSt8functionIFSt7variantIJ9ebpf_instSt5arrayIS1_Lm2EEEERKNSt7__cxx1112basic_stringIcSt11char_traitsIcESaIcEEERKSt6vectorISA_SaISA_EEEEC2ERKSJ_
FNDA:14809,_ZNSt8functionIFSt7variantIJ9ebpf_instSt5arrayIS1_Lm2EEEERKNSt7__cxx1112basic_stringIcSt11char_traitsIcESaIcEEERKSt6vectorISA_SaISA_EEEEC2ERKSJ_
DA:87,14809
DA:88,16563
DA:92,0
DA:93,44427
DA:97,16563
DA:98,16563
DA:151,1754
DA:155,1754
DA:156,1754
DA:165,14809
DA:167,14809
DA:168,14809
DA:184,44427
DA:196,44427
DA:199,44427
DA:202,0
DA:203,0
DA:204,0
DA:206,0
DA:207,0
DA:208,0
DA:211,14809
DA:218,44427
DA:255,14809
DA:257,0
DA:258,0
DA:259,0
DA:260,0
DA:263,16563
DA:283,1754
DA:285,1754
DA:286,1754
DA:564,14809
DA:565,14809
DA:653,14809
DA:655,0
DA:657,14809
DA:659,14809
DA:660,14809
DA:661,14809
DA:663,14809
DA:683,1754
DA:686,1754
DA:687,0
DA:688,1754
end_of_record
SF:/usr/include/c++/9/utility
DA:174,4908
DA:175,4908
DA:184,24096
DA:185,24096
DA:219,4908
DA:220,4908
DA:229,24096
DA:230,24096
end_of_record
SF:/home/alanjo/ubpf/code_gen_tests/bpf_assembler.cc
FN:64,_ZL13_decode_imm64RKNSt7__cxx1112basic_stringIcSt11char_traitsIcESaIcEEE
FNDA:14,_ZL13_decode_imm64RKNSt7__cxx1112basic_stringIcSt11char_traitsIcESaIcEEE
FN:74,_ZL13_decode_imm32RKNSt7__cxx1112basic_stringIcSt11char_traitsIcESaIcEEE
FNDA:886,_ZL13_decode_imm32RKNSt7__cxx1112basic_stringIcSt11char_traitsIcESaIcEEE
FN:84,_ZL14_decode_offsetRKNSt7__cxx1112basic_stringIcSt11char_traitsIcESaIcEEE
FNDA:394,_ZL14_decode_offsetRKNSt7__cxx1112basic_stringIcSt11char_traitsIcESaIcEEE
FN:94,_ZL16_decode_registerRKNSt7__cxx1112basic_stringIcSt11char_traitsIcESaIcEEE
FNDA:2068,_ZL16_decode_registerRKNSt7__cxx1112basic_stringIcSt11char_traitsIcESaIcEEE
FN:104,_ZL27_decode_register_and_offsetRKNSt7__cxx1112basic_stringIcSt11char_traitsIcESaIcEEE
FNDA:284,_ZL27_decode_register_and_offsetRKNSt7__cxx1112basic_stringIcSt11char_traitsIcESaIcEEE
FN:126,_ZL10_encode_ldRKNSt7__cxx1112basic_stringIcSt11char_traitsIcESaIcEEERKSt6vectorIS4_SaIS4_EE
FNDA:14,_ZL10_encode_ldRKNSt7__cxx1112basic_stringIcSt11char_traitsIcESaIcEEERKSt6vectorIS4_SaIS4_EE
FN:145,_ZL11_encode_ldxRKNSt7__cxx1112basic_stringIcSt11char_traitsIcESaIcEEERKSt6vectorIS4_SaIS4_EE
FNDA:184,_ZL11_encode_ldxRKNSt7__cxx1112basic_stringIcSt11char_traitsIcESaIcEEERKSt6vectorIS4_SaIS4_EE
FN:171,_ZL10_encode_stRKNSt7__cxx1112basic_stringIcSt11char_traitsIcESaIcEEERKSt6vectorIS4_SaIS4_EE
FNDA:36,_ZL10_encode_stRKNSt7__cxx1112basic_stringIcSt11char_traitsIcESaIcEEERKSt6vectorIS4_SaIS4_EE
FN:196,_ZL11_encode_stxRKNSt7__cxx1112basic_stringIcSt11char_traitsIcESaIcEEERKSt6vectorIS4_SaIS4_EE
FNDA:64,_ZL11_encode_stxRKNSt7__cxx1112basic_stringIcSt11char_traitsIcESaIcEEERKSt6vectorIS4_SaIS4_EE
FN:222,_ZL11_encode_aluRKNSt7__cxx1112basic_stringIcSt11char_traitsIcESaIcEEERKSt6vectorIS4_SaIS4_EE
FNDA:1040,_ZL11_encode_aluRKNSt7__cxx1112basic_stringIcSt11char_traitsIcESaIcEEERKSt6vectorIS4_SaIS4_EE
FN:283,_ZL11_encode_jmpRKNSt7__cxx1112basic_stringIcSt11char_traitsIcESaIcEEERKSt6vectorIS4_SaIS4_EE
FNDA:416,_ZL11_encode_jmpRKNSt7__cxx1112basic_stringIcSt11char_traitsIcESaIcEEERKSt6vectorIS4_SaIS4_EE
FN:342,_Z13bpf_assemblerRSi
FNDA:224,_Z13bpf_assemblerRSi
DA:64,14
DA:66,14
DA:67,0
DA:69,14
DA:74,886
DA:76,886
DA:77,584
DA:79,302
DA:84,394
DA:86,394
DA:87,394
DA:89,0
DA:94,2068
DA:96,2068
DA:97,2068
DA:98,0
DA:100,2068
DA:104,284
DA:106,284
DA:107,284
DA:108,284
DA:109,284
DA:111,284
DA:112,0
DA:115,568
DA:116,46
DA:117,46
DA:119,238
DA:120,238
DA:121,476
DA:126,14
DA:128,14
DA:129,14
DA:130,0
DA:132,14
DA:133,0
DA:135,14
DA:136,14
DA:137,14
DA:138,14
DA:139,14
DA:141,14
DA:145,184
DA:147,184
DA:148,184
DA:149,0
DA:151,184
DA:152,184
DA:153,184
DA:154,184
DA:155,184
DA:157,128
DA:159,102
DA:161,42
DA:164,0
DA:167,184
DA:171,36
DA:173,36
DA:174,36
DA:175,0
DA:177,36
DA:178,36
DA:179,36
DA:180,36
DA:182,26
DA:184,16
DA:186,12
DA:189,0
DA:191,36
DA:192,36
DA:196,64
DA:198,64
DA:199,64
DA:200,0
DA:202,64
DA:203,64
DA:204,64
DA:205,64
DA:206,64
DA:208,20
DA:210,18
DA:212,16
DA:215,0
DA:218,64
DA:222,1040
DA:224,1040
DA:225,2080
DA:226,1040
DA:227,82
DA:228,0
DA:230,82
DA:231,82
DA:232,82
DA:233,82
DA:234,958
DA:235,12
DA:236,0
DA:238,12
DA:239,12
DA:240,12
DA:241,12
DA:244,946
DA:245,8
DA:246,0
DA:249,938
DA:250,0
DA:254,946
DA:255,346
DA:256,346
DA:258,600
DA:259,600
DA:261,946
DA:262,946
DA:263,0
DA:265,946
DA:267,946
DA:269,946
DA:270,938
DA:271,272
DA:272,272
DA:274,666
DA:275,666
DA:279,1040
DA:283,416
DA:285,416
DA:286,416
DA:287,416
DA:288,16
DA:289,0
DA:292,16
DA:293,400
DA:294,240
DA:295,0
DA:298,160
DA:299,20
DA:300,0
DA:302,20
DA:303,20
DA:305,140
DA:306,0
DA:308,140
DA:309,140
DA:310,140
DA:311,140
DA:312,70
DA:313,70
DA:315,70
DA:316,70
DA:318,140
DA:320,416
DA:342,224
DA:344,224
DA:345,224
DA:347,2046
DA:348,1822
DA:349,3576
DA:350,1754
DA:351,3576
DA:353,1822
DA:354,68
DA:357,4784
DA:358,3030
DA:361,3030
DA:362,1516
DA:364,3030
DA:367,1754
DA:368,1754
DA:369,0
DA:372,1754
DA:373,1754
DA:374,1740
DA:376,56
DA:377,28
DA:381,320
end_of_record
SF:/usr/include/c++/9/new
DA:173,30550
DA:174,30550
end_of_record
